ARM GAS  C:\Users\hungv\AppData\Local\Temp\ccOLS2Jf.s 			page 1


   1              		.cpu cortex-m4
   2              		.eabi_attribute 27, 1
   3              		.eabi_attribute 28, 1
   4              		.eabi_attribute 20, 1
   5              		.eabi_attribute 21, 1
   6              		.eabi_attribute 23, 3
   7              		.eabi_attribute 24, 1
   8              		.eabi_attribute 25, 1
   9              		.eabi_attribute 26, 1
  10              		.eabi_attribute 30, 1
  11              		.eabi_attribute 34, 1
  12              		.eabi_attribute 18, 4
  13              		.file	"hdmi_driver.c"
  14              		.text
  15              	.Ltext0:
  16              		.cfi_sections	.debug_frame
  17              		.section	.text.BSP_CAMERA_MsInit,"ax",%progbits
  18              		.align	1
  19              		.global	BSP_CAMERA_MsInit
  20              		.arch armv7e-m
  21              		.syntax unified
  22              		.thumb
  23              		.thumb_func
  24              		.fpu fpv4-sp-d16
  26              	BSP_CAMERA_MsInit:
  27              	.LFB131:
  28              		.file 1 "Src/hdmi_driver.c"
   1:Src/hdmi_driver.c **** /*
   2:Src/hdmi_driver.c ****  * hdmi_driver.c
   3:Src/hdmi_driver.c ****  *
   4:Src/hdmi_driver.c ****  *  Created on: 01.08.2019
   5:Src/hdmi_driver.c ****  *      Author: hungv
   6:Src/hdmi_driver.c ****  */
   7:Src/hdmi_driver.c **** 
   8:Src/hdmi_driver.c **** #include "hdmi_driver.h"
   9:Src/hdmi_driver.c **** #include "stm32f4xx_hal.h"
  10:Src/hdmi_driver.c **** #include "i2c_driver.h"
  11:Src/hdmi_driver.c **** #include "io.h"
  12:Src/hdmi_driver.c **** #include "ov2640.h"
  13:Src/hdmi_driver.c **** #include "io_pin_driver.h"
  14:Src/hdmi_driver.c **** 
  15:Src/hdmi_driver.c **** DCMI_HandleTypeDef hdcmi;
  16:Src/hdmi_driver.c **** CAMERA_DrvTypeDef *camera;
  17:Src/hdmi_driver.c **** 
  18:Src/hdmi_driver.c **** 
  19:Src/hdmi_driver.c **** uint32_t current_resolution;
  20:Src/hdmi_driver.c **** uint32_t GetSize(uint32_t resolution);
  21:Src/hdmi_driver.c **** void BSP_CAMERA_MsInit(void);
  22:Src/hdmi_driver.c **** 
  23:Src/hdmi_driver.c **** /**
  24:Src/hdmi_driver.c ****   * @brief  Initializes the camera.
  25:Src/hdmi_driver.c ****   * @param  Resolution: Camera Resolution
  26:Src/hdmi_driver.c ****   * @retval Camera status
  27:Src/hdmi_driver.c ****   */
  28:Src/hdmi_driver.c **** uint8_t BSP_CAMERA_Init(uint32_t Resolution)
  29:Src/hdmi_driver.c **** {
  30:Src/hdmi_driver.c ****   uint8_t ret = CAMERA_ERROR;
ARM GAS  C:\Users\hungv\AppData\Local\Temp\ccOLS2Jf.s 			page 2


  31:Src/hdmi_driver.c **** 
  32:Src/hdmi_driver.c ****     hdcmi.Instance = DCMI;
  33:Src/hdmi_driver.c ****   	hdcmi.Init.SynchroMode = DCMI_SYNCHRO_HARDWARE;
  34:Src/hdmi_driver.c ****   	hdcmi.Init.PCKPolarity = DCMI_PCKPOLARITY_FALLING;
  35:Src/hdmi_driver.c ****   	hdcmi.Init.VSPolarity = DCMI_VSPOLARITY_LOW;
  36:Src/hdmi_driver.c ****   	hdcmi.Init.HSPolarity = DCMI_HSPOLARITY_LOW;
  37:Src/hdmi_driver.c ****   	hdcmi.Init.CaptureRate = DCMI_CR_ALL_FRAME;
  38:Src/hdmi_driver.c ****   	hdcmi.Init.ExtendedDataMode = DCMI_EXTEND_DATA_8B;
  39:Src/hdmi_driver.c ****   	hdcmi.Init.JPEGMode = DCMI_JPEG_DISABLE;
  40:Src/hdmi_driver.c **** 
  41:Src/hdmi_driver.c ****   /* Configure IO functionalities for camera detect pin */
  42:Src/hdmi_driver.c ****   BSP_IO_Init();
  43:Src/hdmi_driver.c **** 
  44:Src/hdmi_driver.c ****   /* Set the camera STANDBY pin */
  45:Src/hdmi_driver.c ****   BSP_IO_ConfigPin(GPIO_PIN_0, IO_MODE_OUTPUT);
  46:Src/hdmi_driver.c ****   BSP_IO_WritePin(GPIO_PIN_0, SET);
  47:Src/hdmi_driver.c **** 
  48:Src/hdmi_driver.c ****   /* Check if the camera is plugged */
  49:Src/hdmi_driver.c ****   if(BSP_IO_ReadPin(GPIO_PIN_3))
  50:Src/hdmi_driver.c ****   {
  51:Src/hdmi_driver.c ****     return CAMERA_ERROR;
  52:Src/hdmi_driver.c ****   }
  53:Src/hdmi_driver.c **** 
  54:Src/hdmi_driver.c ****   /* DCMI Initialization */
  55:Src/hdmi_driver.c ****   BSP_CAMERA_MsInit();
  56:Src/hdmi_driver.c ****   HAL_DCMI_Init(&hdcmi);
  57:Src/hdmi_driver.c **** 
  58:Src/hdmi_driver.c ****   if(ov2640_ReadID(CAMERA_I2C_ADDRESS) == OV2640_ID)
  59:Src/hdmi_driver.c ****   {
  60:Src/hdmi_driver.c ****     /* Initialize the camera driver structure */
  61:Src/hdmi_driver.c ****     camera = &ov2640_drv;
  62:Src/hdmi_driver.c **** 
  63:Src/hdmi_driver.c ****     /* Camera Init */
  64:Src/hdmi_driver.c ****     camera->Init(CAMERA_I2C_ADDRESS, Resolution);
  65:Src/hdmi_driver.c **** 
  66:Src/hdmi_driver.c ****     /* Return CAMERA_OK status */
  67:Src/hdmi_driver.c ****     ret = CAMERA_OK;
  68:Src/hdmi_driver.c ****   }
  69:Src/hdmi_driver.c **** 
  70:Src/hdmi_driver.c ****   current_resolution = Resolution;
  71:Src/hdmi_driver.c **** 
  72:Src/hdmi_driver.c ****   return ret;
  73:Src/hdmi_driver.c **** }
  74:Src/hdmi_driver.c **** 
  75:Src/hdmi_driver.c **** void BSP_CAMERA_MsInit(void) {
  29              		.loc 1 75 30 view -0
  30              		.cfi_startproc
  31              		@ args = 0, pretend = 0, frame = 40
  32              		@ frame_needed = 0, uses_anonymous_args = 0
  33 0000 70B5     		push	{r4, r5, r6, lr}
  34              	.LCFI0:
  35              		.cfi_def_cfa_offset 16
  36              		.cfi_offset 4, -16
  37              		.cfi_offset 5, -12
  38              		.cfi_offset 6, -8
  39              		.cfi_offset 14, -4
  40 0002 8AB0     		sub	sp, sp, #40
ARM GAS  C:\Users\hungv\AppData\Local\Temp\ccOLS2Jf.s 			page 3


  41              	.LCFI1:
  42              		.cfi_def_cfa_offset 56
  76:Src/hdmi_driver.c **** 
  77:Src/hdmi_driver.c **** 	GPIO_InitTypeDef GPIO_InitStruct = { 0 };
  43              		.loc 1 77 2 view .LVU1
  44              		.loc 1 77 19 is_stmt 0 view .LVU2
  45 0004 0024     		movs	r4, #0
  46 0006 0794     		str	r4, [sp, #28]
  47 0008 0894     		str	r4, [sp, #32]
  78:Src/hdmi_driver.c **** 
  79:Src/hdmi_driver.c **** 	/*** Enable peripherals and GPIO clocks ***/
  80:Src/hdmi_driver.c **** 	/* Enable DCMI clock */
  81:Src/hdmi_driver.c **** 	__HAL_RCC_DCMI_CLK_ENABLE();
  48              		.loc 1 81 2 is_stmt 1 view .LVU3
  49              	.LBB2:
  50              		.loc 1 81 2 view .LVU4
  51 000a 0094     		str	r4, [sp]
  52              		.loc 1 81 2 view .LVU5
  53 000c 2E4B     		ldr	r3, .L3
  54 000e 5A6B     		ldr	r2, [r3, #52]
  55 0010 42F00102 		orr	r2, r2, #1
  56 0014 5A63     		str	r2, [r3, #52]
  57              		.loc 1 81 2 view .LVU6
  58 0016 5A6B     		ldr	r2, [r3, #52]
  59 0018 02F00102 		and	r2, r2, #1
  60 001c 0092     		str	r2, [sp]
  61              		.loc 1 81 2 view .LVU7
  62 001e 009A     		ldr	r2, [sp]
  63              	.LBE2:
  82:Src/hdmi_driver.c **** 
  83:Src/hdmi_driver.c **** 	/* GPIO Ports Clock Enable */
  84:Src/hdmi_driver.c **** 	__HAL_RCC_GPIOE_CLK_ENABLE();
  64              		.loc 1 84 2 view .LVU8
  65              	.LBB3:
  66              		.loc 1 84 2 view .LVU9
  67 0020 0194     		str	r4, [sp, #4]
  68              		.loc 1 84 2 view .LVU10
  69 0022 1A6B     		ldr	r2, [r3, #48]
  70 0024 42F01002 		orr	r2, r2, #16
  71 0028 1A63     		str	r2, [r3, #48]
  72              		.loc 1 84 2 view .LVU11
  73 002a 1A6B     		ldr	r2, [r3, #48]
  74 002c 02F01002 		and	r2, r2, #16
  75 0030 0192     		str	r2, [sp, #4]
  76              		.loc 1 84 2 view .LVU12
  77 0032 019A     		ldr	r2, [sp, #4]
  78              	.LBE3:
  85:Src/hdmi_driver.c **** 	__HAL_RCC_GPIOA_CLK_ENABLE();
  79              		.loc 1 85 2 view .LVU13
  80              	.LBB4:
  81              		.loc 1 85 2 view .LVU14
  82 0034 0294     		str	r4, [sp, #8]
  83              		.loc 1 85 2 view .LVU15
  84 0036 1A6B     		ldr	r2, [r3, #48]
  85 0038 42F00102 		orr	r2, r2, #1
  86 003c 1A63     		str	r2, [r3, #48]
  87              		.loc 1 85 2 view .LVU16
ARM GAS  C:\Users\hungv\AppData\Local\Temp\ccOLS2Jf.s 			page 4


  88 003e 1A6B     		ldr	r2, [r3, #48]
  89 0040 02F00102 		and	r2, r2, #1
  90 0044 0292     		str	r2, [sp, #8]
  91              		.loc 1 85 2 view .LVU17
  92 0046 029A     		ldr	r2, [sp, #8]
  93              	.LBE4:
  86:Src/hdmi_driver.c **** 	__HAL_RCC_GPIOC_CLK_ENABLE();
  94              		.loc 1 86 2 view .LVU18
  95              	.LBB5:
  96              		.loc 1 86 2 view .LVU19
  97 0048 0394     		str	r4, [sp, #12]
  98              		.loc 1 86 2 view .LVU20
  99 004a 1A6B     		ldr	r2, [r3, #48]
 100 004c 42F00402 		orr	r2, r2, #4
 101 0050 1A63     		str	r2, [r3, #48]
 102              		.loc 1 86 2 view .LVU21
 103 0052 1A6B     		ldr	r2, [r3, #48]
 104 0054 02F00402 		and	r2, r2, #4
 105 0058 0392     		str	r2, [sp, #12]
 106              		.loc 1 86 2 view .LVU22
 107 005a 039A     		ldr	r2, [sp, #12]
 108              	.LBE5:
  87:Src/hdmi_driver.c **** 	__HAL_RCC_GPIOB_CLK_ENABLE();
 109              		.loc 1 87 2 view .LVU23
 110              	.LBB6:
 111              		.loc 1 87 2 view .LVU24
 112 005c 0494     		str	r4, [sp, #16]
 113              		.loc 1 87 2 view .LVU25
 114 005e 1A6B     		ldr	r2, [r3, #48]
 115 0060 42F00202 		orr	r2, r2, #2
 116 0064 1A63     		str	r2, [r3, #48]
 117              		.loc 1 87 2 view .LVU26
 118 0066 1B6B     		ldr	r3, [r3, #48]
 119 0068 03F00203 		and	r3, r3, #2
 120 006c 0493     		str	r3, [sp, #16]
 121              		.loc 1 87 2 view .LVU27
 122 006e 049B     		ldr	r3, [sp, #16]
 123              	.LBE6:
  88:Src/hdmi_driver.c **** 
  89:Src/hdmi_driver.c **** 	/* Configure DCMI GPIO as alternate function */
  90:Src/hdmi_driver.c **** 	GPIO_InitStruct.Pin = GPIO_PIN_4 | GPIO_PIN_5 | GPIO_PIN_6;
 124              		.loc 1 90 2 view .LVU28
 125              		.loc 1 90 22 is_stmt 0 view .LVU29
 126 0070 7023     		movs	r3, #112
 127 0072 0593     		str	r3, [sp, #20]
  91:Src/hdmi_driver.c **** 	GPIO_InitStruct.Mode = GPIO_MODE_AF_PP;
 128              		.loc 1 91 2 is_stmt 1 view .LVU30
 129              		.loc 1 91 23 is_stmt 0 view .LVU31
 130 0074 0226     		movs	r6, #2
 131 0076 0696     		str	r6, [sp, #24]
  92:Src/hdmi_driver.c **** 	GPIO_InitStruct.Pull = GPIO_NOPULL;
 132              		.loc 1 92 2 is_stmt 1 view .LVU32
  93:Src/hdmi_driver.c **** 	GPIO_InitStruct.Speed = GPIO_SPEED_FREQ_LOW;
 133              		.loc 1 93 2 view .LVU33
  94:Src/hdmi_driver.c **** 	GPIO_InitStruct.Alternate = GPIO_AF13_DCMI;
 134              		.loc 1 94 2 view .LVU34
 135              		.loc 1 94 28 is_stmt 0 view .LVU35
ARM GAS  C:\Users\hungv\AppData\Local\Temp\ccOLS2Jf.s 			page 5


 136 0078 0D25     		movs	r5, #13
 137 007a 0995     		str	r5, [sp, #36]
  95:Src/hdmi_driver.c **** 	HAL_GPIO_Init(GPIOE, &GPIO_InitStruct);
 138              		.loc 1 95 2 is_stmt 1 view .LVU36
 139 007c 05A9     		add	r1, sp, #20
 140 007e 1348     		ldr	r0, .L3+4
 141 0080 FFF7FEFF 		bl	HAL_GPIO_Init
 142              	.LVL0:
  96:Src/hdmi_driver.c **** 
  97:Src/hdmi_driver.c **** 	GPIO_InitStruct.Pin = GPIO_PIN_4 | GPIO_PIN_6;
 143              		.loc 1 97 2 view .LVU37
 144              		.loc 1 97 22 is_stmt 0 view .LVU38
 145 0084 5023     		movs	r3, #80
 146 0086 0593     		str	r3, [sp, #20]
  98:Src/hdmi_driver.c **** 	GPIO_InitStruct.Mode = GPIO_MODE_AF_PP;
 147              		.loc 1 98 2 is_stmt 1 view .LVU39
 148              		.loc 1 98 23 is_stmt 0 view .LVU40
 149 0088 0696     		str	r6, [sp, #24]
  99:Src/hdmi_driver.c **** 	GPIO_InitStruct.Pull = GPIO_NOPULL;
 150              		.loc 1 99 2 is_stmt 1 view .LVU41
 151              		.loc 1 99 23 is_stmt 0 view .LVU42
 152 008a 0794     		str	r4, [sp, #28]
 100:Src/hdmi_driver.c **** 	GPIO_InitStruct.Speed = GPIO_SPEED_FREQ_LOW;
 153              		.loc 1 100 2 is_stmt 1 view .LVU43
 154              		.loc 1 100 24 is_stmt 0 view .LVU44
 155 008c 0894     		str	r4, [sp, #32]
 101:Src/hdmi_driver.c **** 	GPIO_InitStruct.Alternate = GPIO_AF13_DCMI;
 156              		.loc 1 101 2 is_stmt 1 view .LVU45
 157              		.loc 1 101 28 is_stmt 0 view .LVU46
 158 008e 0995     		str	r5, [sp, #36]
 102:Src/hdmi_driver.c **** 	HAL_GPIO_Init(GPIOA, &GPIO_InitStruct);
 159              		.loc 1 102 2 is_stmt 1 view .LVU47
 160 0090 05A9     		add	r1, sp, #20
 161 0092 0F48     		ldr	r0, .L3+8
 162 0094 FFF7FEFF 		bl	HAL_GPIO_Init
 163              	.LVL1:
 103:Src/hdmi_driver.c **** 
 104:Src/hdmi_driver.c **** 	GPIO_InitStruct.Pin = GPIO_PIN_6 | GPIO_PIN_7 | GPIO_PIN_8 | GPIO_PIN_9;
 164              		.loc 1 104 2 view .LVU48
 165              		.loc 1 104 22 is_stmt 0 view .LVU49
 166 0098 4FF47073 		mov	r3, #960
 167 009c 0593     		str	r3, [sp, #20]
 105:Src/hdmi_driver.c **** 	GPIO_InitStruct.Mode = GPIO_MODE_AF_PP;
 168              		.loc 1 105 2 is_stmt 1 view .LVU50
 169              		.loc 1 105 23 is_stmt 0 view .LVU51
 170 009e 0696     		str	r6, [sp, #24]
 106:Src/hdmi_driver.c **** 	GPIO_InitStruct.Pull = GPIO_NOPULL;
 171              		.loc 1 106 2 is_stmt 1 view .LVU52
 172              		.loc 1 106 23 is_stmt 0 view .LVU53
 173 00a0 0794     		str	r4, [sp, #28]
 107:Src/hdmi_driver.c **** 	GPIO_InitStruct.Speed = GPIO_SPEED_FREQ_LOW;
 174              		.loc 1 107 2 is_stmt 1 view .LVU54
 175              		.loc 1 107 24 is_stmt 0 view .LVU55
 176 00a2 0894     		str	r4, [sp, #32]
 108:Src/hdmi_driver.c **** 	GPIO_InitStruct.Alternate = GPIO_AF13_DCMI;
 177              		.loc 1 108 2 is_stmt 1 view .LVU56
 178              		.loc 1 108 28 is_stmt 0 view .LVU57
ARM GAS  C:\Users\hungv\AppData\Local\Temp\ccOLS2Jf.s 			page 6


 179 00a4 0995     		str	r5, [sp, #36]
 109:Src/hdmi_driver.c **** 	HAL_GPIO_Init(GPIOC, &GPIO_InitStruct);
 180              		.loc 1 109 2 is_stmt 1 view .LVU58
 181 00a6 05A9     		add	r1, sp, #20
 182 00a8 0A48     		ldr	r0, .L3+12
 183 00aa FFF7FEFF 		bl	HAL_GPIO_Init
 184              	.LVL2:
 110:Src/hdmi_driver.c **** 
 111:Src/hdmi_driver.c **** 	GPIO_InitStruct.Pin = GPIO_PIN_6 | GPIO_PIN_7;
 185              		.loc 1 111 2 view .LVU59
 186              		.loc 1 111 22 is_stmt 0 view .LVU60
 187 00ae C023     		movs	r3, #192
 188 00b0 0593     		str	r3, [sp, #20]
 112:Src/hdmi_driver.c **** 	GPIO_InitStruct.Mode = GPIO_MODE_AF_PP;
 189              		.loc 1 112 2 is_stmt 1 view .LVU61
 190              		.loc 1 112 23 is_stmt 0 view .LVU62
 191 00b2 0696     		str	r6, [sp, #24]
 113:Src/hdmi_driver.c **** 	GPIO_InitStruct.Pull = GPIO_NOPULL;
 192              		.loc 1 113 2 is_stmt 1 view .LVU63
 193              		.loc 1 113 23 is_stmt 0 view .LVU64
 194 00b4 0794     		str	r4, [sp, #28]
 114:Src/hdmi_driver.c **** 	GPIO_InitStruct.Speed = GPIO_SPEED_FREQ_LOW;
 195              		.loc 1 114 2 is_stmt 1 view .LVU65
 196              		.loc 1 114 24 is_stmt 0 view .LVU66
 197 00b6 0894     		str	r4, [sp, #32]
 115:Src/hdmi_driver.c **** 	GPIO_InitStruct.Alternate = GPIO_AF13_DCMI;
 198              		.loc 1 115 2 is_stmt 1 view .LVU67
 199              		.loc 1 115 28 is_stmt 0 view .LVU68
 200 00b8 0995     		str	r5, [sp, #36]
 116:Src/hdmi_driver.c **** 	HAL_GPIO_Init(GPIOB, &GPIO_InitStruct);
 201              		.loc 1 116 2 is_stmt 1 view .LVU69
 202 00ba 05A9     		add	r1, sp, #20
 203 00bc 0648     		ldr	r0, .L3+16
 204 00be FFF7FEFF 		bl	HAL_GPIO_Init
 205              	.LVL3:
 117:Src/hdmi_driver.c **** 
 118:Src/hdmi_driver.c **** }
 206              		.loc 1 118 1 is_stmt 0 view .LVU70
 207 00c2 0AB0     		add	sp, sp, #40
 208              	.LCFI2:
 209              		.cfi_def_cfa_offset 16
 210              		@ sp needed
 211 00c4 70BD     		pop	{r4, r5, r6, pc}
 212              	.L4:
 213 00c6 00BF     		.align	2
 214              	.L3:
 215 00c8 00380240 		.word	1073887232
 216 00cc 00100240 		.word	1073876992
 217 00d0 00000240 		.word	1073872896
 218 00d4 00080240 		.word	1073874944
 219 00d8 00040240 		.word	1073873920
 220              		.cfi_endproc
 221              	.LFE131:
 223              		.section	.text.BSP_CAMERA_Init,"ax",%progbits
 224              		.align	1
 225              		.global	BSP_CAMERA_Init
 226              		.syntax unified
ARM GAS  C:\Users\hungv\AppData\Local\Temp\ccOLS2Jf.s 			page 7


 227              		.thumb
 228              		.thumb_func
 229              		.fpu fpv4-sp-d16
 231              	BSP_CAMERA_Init:
 232              	.LVL4:
 233              	.LFB130:
  29:Src/hdmi_driver.c ****   uint8_t ret = CAMERA_ERROR;
 234              		.loc 1 29 1 is_stmt 1 view -0
 235              		.cfi_startproc
 236              		@ args = 0, pretend = 0, frame = 0
 237              		@ frame_needed = 0, uses_anonymous_args = 0
  29:Src/hdmi_driver.c ****   uint8_t ret = CAMERA_ERROR;
 238              		.loc 1 29 1 is_stmt 0 view .LVU72
 239 0000 10B5     		push	{r4, lr}
 240              	.LCFI3:
 241              		.cfi_def_cfa_offset 8
 242              		.cfi_offset 4, -8
 243              		.cfi_offset 14, -4
 244 0002 0446     		mov	r4, r0
  30:Src/hdmi_driver.c **** 
 245              		.loc 1 30 3 is_stmt 1 view .LVU73
 246              	.LVL5:
  32:Src/hdmi_driver.c ****   	hdcmi.Init.SynchroMode = DCMI_SYNCHRO_HARDWARE;
 247              		.loc 1 32 5 view .LVU74
  32:Src/hdmi_driver.c ****   	hdcmi.Init.SynchroMode = DCMI_SYNCHRO_HARDWARE;
 248              		.loc 1 32 20 is_stmt 0 view .LVU75
 249 0004 184B     		ldr	r3, .L13
 250 0006 194A     		ldr	r2, .L13+4
 251 0008 1A60     		str	r2, [r3]
  33:Src/hdmi_driver.c ****   	hdcmi.Init.PCKPolarity = DCMI_PCKPOLARITY_FALLING;
 252              		.loc 1 33 4 is_stmt 1 view .LVU76
  33:Src/hdmi_driver.c ****   	hdcmi.Init.PCKPolarity = DCMI_PCKPOLARITY_FALLING;
 253              		.loc 1 33 27 is_stmt 0 view .LVU77
 254 000a 0022     		movs	r2, #0
 255 000c 5A60     		str	r2, [r3, #4]
  34:Src/hdmi_driver.c ****   	hdcmi.Init.VSPolarity = DCMI_VSPOLARITY_LOW;
 256              		.loc 1 34 4 is_stmt 1 view .LVU78
  34:Src/hdmi_driver.c ****   	hdcmi.Init.VSPolarity = DCMI_VSPOLARITY_LOW;
 257              		.loc 1 34 27 is_stmt 0 view .LVU79
 258 000e 9A60     		str	r2, [r3, #8]
  35:Src/hdmi_driver.c ****   	hdcmi.Init.HSPolarity = DCMI_HSPOLARITY_LOW;
 259              		.loc 1 35 4 is_stmt 1 view .LVU80
  35:Src/hdmi_driver.c ****   	hdcmi.Init.HSPolarity = DCMI_HSPOLARITY_LOW;
 260              		.loc 1 35 26 is_stmt 0 view .LVU81
 261 0010 DA60     		str	r2, [r3, #12]
  36:Src/hdmi_driver.c ****   	hdcmi.Init.CaptureRate = DCMI_CR_ALL_FRAME;
 262              		.loc 1 36 4 is_stmt 1 view .LVU82
  36:Src/hdmi_driver.c ****   	hdcmi.Init.CaptureRate = DCMI_CR_ALL_FRAME;
 263              		.loc 1 36 26 is_stmt 0 view .LVU83
 264 0012 1A61     		str	r2, [r3, #16]
  37:Src/hdmi_driver.c ****   	hdcmi.Init.ExtendedDataMode = DCMI_EXTEND_DATA_8B;
 265              		.loc 1 37 4 is_stmt 1 view .LVU84
  37:Src/hdmi_driver.c ****   	hdcmi.Init.ExtendedDataMode = DCMI_EXTEND_DATA_8B;
 266              		.loc 1 37 27 is_stmt 0 view .LVU85
 267 0014 5A61     		str	r2, [r3, #20]
  38:Src/hdmi_driver.c ****   	hdcmi.Init.JPEGMode = DCMI_JPEG_DISABLE;
 268              		.loc 1 38 4 is_stmt 1 view .LVU86
ARM GAS  C:\Users\hungv\AppData\Local\Temp\ccOLS2Jf.s 			page 8


  38:Src/hdmi_driver.c ****   	hdcmi.Init.JPEGMode = DCMI_JPEG_DISABLE;
 269              		.loc 1 38 32 is_stmt 0 view .LVU87
 270 0016 9A61     		str	r2, [r3, #24]
  39:Src/hdmi_driver.c **** 
 271              		.loc 1 39 4 is_stmt 1 view .LVU88
  39:Src/hdmi_driver.c **** 
 272              		.loc 1 39 24 is_stmt 0 view .LVU89
 273 0018 1A62     		str	r2, [r3, #32]
  42:Src/hdmi_driver.c **** 
 274              		.loc 1 42 3 is_stmt 1 view .LVU90
 275 001a FFF7FEFF 		bl	BSP_IO_Init
 276              	.LVL6:
  45:Src/hdmi_driver.c ****   BSP_IO_WritePin(GPIO_PIN_0, SET);
 277              		.loc 1 45 3 view .LVU91
 278 001e 0121     		movs	r1, #1
 279 0020 0846     		mov	r0, r1
 280 0022 FFF7FEFF 		bl	BSP_IO_ConfigPin
 281              	.LVL7:
  46:Src/hdmi_driver.c **** 
 282              		.loc 1 46 3 view .LVU92
 283 0026 0121     		movs	r1, #1
 284 0028 0846     		mov	r0, r1
 285 002a FFF7FEFF 		bl	BSP_IO_WritePin
 286              	.LVL8:
  49:Src/hdmi_driver.c ****   {
 287              		.loc 1 49 3 view .LVU93
  49:Src/hdmi_driver.c ****   {
 288              		.loc 1 49 6 is_stmt 0 view .LVU94
 289 002e 0820     		movs	r0, #8
 290 0030 FFF7FEFF 		bl	BSP_IO_ReadPin
 291              	.LVL9:
  49:Src/hdmi_driver.c ****   {
 292              		.loc 1 49 5 view .LVU95
 293 0034 08B1     		cbz	r0, .L11
  51:Src/hdmi_driver.c ****   }
 294              		.loc 1 51 12 view .LVU96
 295 0036 0120     		movs	r0, #1
 296              	.LVL10:
 297              	.L6:
  73:Src/hdmi_driver.c **** 
 298              		.loc 1 73 1 view .LVU97
 299 0038 10BD     		pop	{r4, pc}
 300              	.LVL11:
 301              	.L11:
  55:Src/hdmi_driver.c ****   HAL_DCMI_Init(&hdcmi);
 302              		.loc 1 55 3 is_stmt 1 view .LVU98
 303 003a FFF7FEFF 		bl	BSP_CAMERA_MsInit
 304              	.LVL12:
  56:Src/hdmi_driver.c **** 
 305              		.loc 1 56 3 view .LVU99
 306 003e 0A48     		ldr	r0, .L13
 307 0040 FFF7FEFF 		bl	HAL_DCMI_Init
 308              	.LVL13:
  58:Src/hdmi_driver.c ****   {
 309              		.loc 1 58 3 view .LVU100
  58:Src/hdmi_driver.c ****   {
 310              		.loc 1 58 6 is_stmt 0 view .LVU101
ARM GAS  C:\Users\hungv\AppData\Local\Temp\ccOLS2Jf.s 			page 9


 311 0044 6020     		movs	r0, #96
 312 0046 FFF7FEFF 		bl	ov2640_ReadID
 313              	.LVL14:
  58:Src/hdmi_driver.c ****   {
 314              		.loc 1 58 5 view .LVU102
 315 004a 2628     		cmp	r0, #38
 316 004c 03D0     		beq	.L12
  30:Src/hdmi_driver.c **** 
 317              		.loc 1 30 11 view .LVU103
 318 004e 0120     		movs	r0, #1
 319              	.LVL15:
 320              	.L7:
  70:Src/hdmi_driver.c **** 
 321              		.loc 1 70 3 is_stmt 1 view .LVU104
  70:Src/hdmi_driver.c **** 
 322              		.loc 1 70 22 is_stmt 0 view .LVU105
 323 0050 074B     		ldr	r3, .L13+8
 324 0052 1C60     		str	r4, [r3]
  72:Src/hdmi_driver.c **** }
 325              		.loc 1 72 3 is_stmt 1 view .LVU106
  72:Src/hdmi_driver.c **** }
 326              		.loc 1 72 10 is_stmt 0 view .LVU107
 327 0054 F0E7     		b	.L6
 328              	.LVL16:
 329              	.L12:
  61:Src/hdmi_driver.c **** 
 330              		.loc 1 61 5 is_stmt 1 view .LVU108
  61:Src/hdmi_driver.c **** 
 331              		.loc 1 61 12 is_stmt 0 view .LVU109
 332 0056 074B     		ldr	r3, .L13+12
 333 0058 074A     		ldr	r2, .L13+16
 334 005a 1360     		str	r3, [r2]
  64:Src/hdmi_driver.c **** 
 335              		.loc 1 64 5 is_stmt 1 view .LVU110
  64:Src/hdmi_driver.c **** 
 336              		.loc 1 64 11 is_stmt 0 view .LVU111
 337 005c 1B68     		ldr	r3, [r3]
  64:Src/hdmi_driver.c **** 
 338              		.loc 1 64 5 view .LVU112
 339 005e 2146     		mov	r1, r4
 340 0060 6020     		movs	r0, #96
 341 0062 9847     		blx	r3
 342              	.LVL17:
  67:Src/hdmi_driver.c ****   }
 343              		.loc 1 67 5 is_stmt 1 view .LVU113
  67:Src/hdmi_driver.c ****   }
 344              		.loc 1 67 9 is_stmt 0 view .LVU114
 345 0064 0020     		movs	r0, #0
 346 0066 F3E7     		b	.L7
 347              	.L14:
 348              		.align	2
 349              	.L13:
 350 0068 00000000 		.word	hdcmi
 351 006c 00000550 		.word	1342504960
 352 0070 00000000 		.word	current_resolution
 353 0074 00000000 		.word	ov2640_drv
 354 0078 00000000 		.word	camera
ARM GAS  C:\Users\hungv\AppData\Local\Temp\ccOLS2Jf.s 			page 10


 355              		.cfi_endproc
 356              	.LFE130:
 358              		.section	.text.BSP_CAMERA_ContinuousStart,"ax",%progbits
 359              		.align	1
 360              		.global	BSP_CAMERA_ContinuousStart
 361              		.syntax unified
 362              		.thumb
 363              		.thumb_func
 364              		.fpu fpv4-sp-d16
 366              	BSP_CAMERA_ContinuousStart:
 367              	.LVL18:
 368              	.LFB132:
 119:Src/hdmi_driver.c **** 
 120:Src/hdmi_driver.c **** /**
 121:Src/hdmi_driver.c ****  * @brief  Starts the camera capture in continuous mode.
 122:Src/hdmi_driver.c ****  * @param  buff: pointer to the camera output buffer
 123:Src/hdmi_driver.c ****  */
 124:Src/hdmi_driver.c **** void BSP_CAMERA_ContinuousStart(uint8_t *buff) {
 369              		.loc 1 124 48 is_stmt 1 view -0
 370              		.cfi_startproc
 371              		@ args = 0, pretend = 0, frame = 0
 372              		@ frame_needed = 0, uses_anonymous_args = 0
 373              		.loc 1 124 48 is_stmt 0 view .LVU116
 374 0000 10B5     		push	{r4, lr}
 375              	.LCFI4:
 376              		.cfi_def_cfa_offset 8
 377              		.cfi_offset 4, -8
 378              		.cfi_offset 14, -4
 379 0002 0446     		mov	r4, r0
 125:Src/hdmi_driver.c **** 	/* Start the camera capture */
 126:Src/hdmi_driver.c **** 	HAL_DCMI_Start_DMA(&hdcmi, DCMI_MODE_CONTINUOUS, (uint32_t) buff,
 380              		.loc 1 126 2 is_stmt 1 view .LVU117
 381 0004 054B     		ldr	r3, .L17
 382 0006 1868     		ldr	r0, [r3]
 383              	.LVL19:
 384              		.loc 1 126 2 is_stmt 0 view .LVU118
 385 0008 FFF7FEFF 		bl	GetSize
 386              	.LVL20:
 387 000c 0346     		mov	r3, r0
 388 000e 2246     		mov	r2, r4
 389 0010 0021     		movs	r1, #0
 390 0012 0348     		ldr	r0, .L17+4
 391 0014 FFF7FEFF 		bl	HAL_DCMI_Start_DMA
 392              	.LVL21:
 127:Src/hdmi_driver.c **** 			GetSize(current_resolution));
 128:Src/hdmi_driver.c **** }
 393              		.loc 1 128 1 view .LVU119
 394 0018 10BD     		pop	{r4, pc}
 395              	.LVL22:
 396              	.L18:
 397              		.loc 1 128 1 view .LVU120
 398 001a 00BF     		.align	2
 399              	.L17:
 400 001c 00000000 		.word	current_resolution
 401 0020 00000000 		.word	hdcmi
 402              		.cfi_endproc
 403              	.LFE132:
ARM GAS  C:\Users\hungv\AppData\Local\Temp\ccOLS2Jf.s 			page 11


 405              		.section	.text.BSP_CAMERA_SnapshotStart,"ax",%progbits
 406              		.align	1
 407              		.global	BSP_CAMERA_SnapshotStart
 408              		.syntax unified
 409              		.thumb
 410              		.thumb_func
 411              		.fpu fpv4-sp-d16
 413              	BSP_CAMERA_SnapshotStart:
 414              	.LVL23:
 415              	.LFB133:
 129:Src/hdmi_driver.c **** 
 130:Src/hdmi_driver.c **** /**
 131:Src/hdmi_driver.c ****  * @brief  Starts the camera capture in snapshot mode.
 132:Src/hdmi_driver.c ****  * @param  buff: pointer to the camera output buffer
 133:Src/hdmi_driver.c ****  */
 134:Src/hdmi_driver.c **** void BSP_CAMERA_SnapshotStart(uint8_t *buff) {
 416              		.loc 1 134 46 is_stmt 1 view -0
 417              		.cfi_startproc
 418              		@ args = 0, pretend = 0, frame = 0
 419              		@ frame_needed = 0, uses_anonymous_args = 0
 420              		.loc 1 134 46 is_stmt 0 view .LVU122
 421 0000 10B5     		push	{r4, lr}
 422              	.LCFI5:
 423              		.cfi_def_cfa_offset 8
 424              		.cfi_offset 4, -8
 425              		.cfi_offset 14, -4
 426 0002 0446     		mov	r4, r0
 135:Src/hdmi_driver.c **** 	/* Start the camera capture */
 136:Src/hdmi_driver.c **** 	HAL_DCMI_Start_DMA(&hdcmi, DCMI_MODE_SNAPSHOT, (uint32_t) buff,
 427              		.loc 1 136 2 is_stmt 1 view .LVU123
 428 0004 054B     		ldr	r3, .L21
 429 0006 1868     		ldr	r0, [r3]
 430              	.LVL24:
 431              		.loc 1 136 2 is_stmt 0 view .LVU124
 432 0008 FFF7FEFF 		bl	GetSize
 433              	.LVL25:
 434 000c 0346     		mov	r3, r0
 435 000e 2246     		mov	r2, r4
 436 0010 0221     		movs	r1, #2
 437 0012 0348     		ldr	r0, .L21+4
 438 0014 FFF7FEFF 		bl	HAL_DCMI_Start_DMA
 439              	.LVL26:
 137:Src/hdmi_driver.c **** 			GetSize(current_resolution));
 138:Src/hdmi_driver.c **** }
 440              		.loc 1 138 1 view .LVU125
 441 0018 10BD     		pop	{r4, pc}
 442              	.LVL27:
 443              	.L22:
 444              		.loc 1 138 1 view .LVU126
 445 001a 00BF     		.align	2
 446              	.L21:
 447 001c 00000000 		.word	current_resolution
 448 0020 00000000 		.word	hdcmi
 449              		.cfi_endproc
 450              	.LFE133:
 452              		.section	.text.BSP_CAMERA_Suspend,"ax",%progbits
 453              		.align	1
ARM GAS  C:\Users\hungv\AppData\Local\Temp\ccOLS2Jf.s 			page 12


 454              		.global	BSP_CAMERA_Suspend
 455              		.syntax unified
 456              		.thumb
 457              		.thumb_func
 458              		.fpu fpv4-sp-d16
 460              	BSP_CAMERA_Suspend:
 461              	.LFB134:
 139:Src/hdmi_driver.c **** 
 140:Src/hdmi_driver.c **** /**
 141:Src/hdmi_driver.c ****  * @brief Suspend the CAMERA capture
 142:Src/hdmi_driver.c ****  */
 143:Src/hdmi_driver.c **** void BSP_CAMERA_Suspend(void) {
 462              		.loc 1 143 31 is_stmt 1 view -0
 463              		.cfi_startproc
 464              		@ args = 0, pretend = 0, frame = 0
 465              		@ frame_needed = 0, uses_anonymous_args = 0
 466 0000 08B5     		push	{r3, lr}
 467              	.LCFI6:
 468              		.cfi_def_cfa_offset 8
 469              		.cfi_offset 3, -8
 470              		.cfi_offset 14, -4
 144:Src/hdmi_driver.c **** 	/* Suspend the Camera Capture */
 145:Src/hdmi_driver.c **** 	HAL_DCMI_Suspend(&hdcmi);
 471              		.loc 1 145 2 view .LVU128
 472 0002 0248     		ldr	r0, .L25
 473 0004 FFF7FEFF 		bl	HAL_DCMI_Suspend
 474              	.LVL28:
 146:Src/hdmi_driver.c **** }
 475              		.loc 1 146 1 is_stmt 0 view .LVU129
 476 0008 08BD     		pop	{r3, pc}
 477              	.L26:
 478 000a 00BF     		.align	2
 479              	.L25:
 480 000c 00000000 		.word	hdcmi
 481              		.cfi_endproc
 482              	.LFE134:
 484              		.section	.text.BSP_CAMERA_Resume,"ax",%progbits
 485              		.align	1
 486              		.global	BSP_CAMERA_Resume
 487              		.syntax unified
 488              		.thumb
 489              		.thumb_func
 490              		.fpu fpv4-sp-d16
 492              	BSP_CAMERA_Resume:
 493              	.LFB135:
 147:Src/hdmi_driver.c **** 
 148:Src/hdmi_driver.c **** /**
 149:Src/hdmi_driver.c ****  * @brief Resume the CAMERA capture
 150:Src/hdmi_driver.c ****  */
 151:Src/hdmi_driver.c **** void BSP_CAMERA_Resume(void) {
 494              		.loc 1 151 30 is_stmt 1 view -0
 495              		.cfi_startproc
 496              		@ args = 0, pretend = 0, frame = 0
 497              		@ frame_needed = 0, uses_anonymous_args = 0
 498 0000 08B5     		push	{r3, lr}
 499              	.LCFI7:
 500              		.cfi_def_cfa_offset 8
ARM GAS  C:\Users\hungv\AppData\Local\Temp\ccOLS2Jf.s 			page 13


 501              		.cfi_offset 3, -8
 502              		.cfi_offset 14, -4
 152:Src/hdmi_driver.c **** 	/* Start the Camera Capture */
 153:Src/hdmi_driver.c **** 	HAL_DCMI_Resume(&hdcmi);
 503              		.loc 1 153 2 view .LVU131
 504 0002 0248     		ldr	r0, .L29
 505 0004 FFF7FEFF 		bl	HAL_DCMI_Resume
 506              	.LVL29:
 154:Src/hdmi_driver.c **** }
 507              		.loc 1 154 1 is_stmt 0 view .LVU132
 508 0008 08BD     		pop	{r3, pc}
 509              	.L30:
 510 000a 00BF     		.align	2
 511              	.L29:
 512 000c 00000000 		.word	hdcmi
 513              		.cfi_endproc
 514              	.LFE135:
 516              		.section	.text.BSP_CAMERA_Stop,"ax",%progbits
 517              		.align	1
 518              		.global	BSP_CAMERA_Stop
 519              		.syntax unified
 520              		.thumb
 521              		.thumb_func
 522              		.fpu fpv4-sp-d16
 524              	BSP_CAMERA_Stop:
 525              	.LFB136:
 155:Src/hdmi_driver.c **** 
 156:Src/hdmi_driver.c **** /**
 157:Src/hdmi_driver.c ****  * @brief  Stop the CAMERA capture
 158:Src/hdmi_driver.c ****  * @retval Camera status
 159:Src/hdmi_driver.c ****  */
 160:Src/hdmi_driver.c **** uint8_t BSP_CAMERA_Stop(void) {
 526              		.loc 1 160 31 is_stmt 1 view -0
 527              		.cfi_startproc
 528              		@ args = 0, pretend = 0, frame = 0
 529              		@ frame_needed = 0, uses_anonymous_args = 0
 530 0000 10B5     		push	{r4, lr}
 531              	.LCFI8:
 532              		.cfi_def_cfa_offset 8
 533              		.cfi_offset 4, -8
 534              		.cfi_offset 14, -4
 161:Src/hdmi_driver.c **** 	DCMI_HandleTypeDef *phdcmi;
 535              		.loc 1 161 2 view .LVU134
 162:Src/hdmi_driver.c **** 
 163:Src/hdmi_driver.c **** 	uint8_t ret = CAMERA_ERROR;
 536              		.loc 1 163 2 view .LVU135
 537              	.LVL30:
 164:Src/hdmi_driver.c **** 
 165:Src/hdmi_driver.c **** 	/* Get the DCMI handle structure */
 166:Src/hdmi_driver.c **** 	phdcmi = &hdcmi;
 538              		.loc 1 166 2 view .LVU136
 167:Src/hdmi_driver.c **** 
 168:Src/hdmi_driver.c **** 	if (HAL_DCMI_Stop(phdcmi) == HAL_OK) {
 539              		.loc 1 168 2 view .LVU137
 540              		.loc 1 168 6 is_stmt 0 view .LVU138
 541 0002 0948     		ldr	r0, .L35
 542 0004 FFF7FEFF 		bl	HAL_DCMI_Stop
ARM GAS  C:\Users\hungv\AppData\Local\Temp\ccOLS2Jf.s 			page 14


 543              	.LVL31:
 544              		.loc 1 168 5 view .LVU139
 545 0008 60B1     		cbz	r0, .L33
 163:Src/hdmi_driver.c **** 
 546              		.loc 1 163 10 view .LVU140
 547 000a 0124     		movs	r4, #1
 548              	.L32:
 549              	.LVL32:
 169:Src/hdmi_driver.c **** 		ret = CAMERA_OK;
 170:Src/hdmi_driver.c **** 	}
 171:Src/hdmi_driver.c **** 
 172:Src/hdmi_driver.c **** 	/* Initialize IO */
 173:Src/hdmi_driver.c **** 	BSP_IO_Init();
 550              		.loc 1 173 2 is_stmt 1 view .LVU141
 551 000c FFF7FEFF 		bl	BSP_IO_Init
 552              	.LVL33:
 174:Src/hdmi_driver.c **** 
 175:Src/hdmi_driver.c **** 	/* Reset the camera STANDBY pin */
 176:Src/hdmi_driver.c **** 	BSP_IO_ConfigPin(0x0001, IO_MODE_OUTPUT);
 553              		.loc 1 176 2 view .LVU142
 554 0010 0121     		movs	r1, #1
 555 0012 0846     		mov	r0, r1
 556 0014 FFF7FEFF 		bl	BSP_IO_ConfigPin
 557              	.LVL34:
 177:Src/hdmi_driver.c **** 	BSP_IO_WritePin(0x0001, RESET);
 558              		.loc 1 177 2 view .LVU143
 559 0018 0021     		movs	r1, #0
 560 001a 0120     		movs	r0, #1
 561 001c FFF7FEFF 		bl	BSP_IO_WritePin
 562              	.LVL35:
 178:Src/hdmi_driver.c **** 
 179:Src/hdmi_driver.c **** 	return ret;
 563              		.loc 1 179 2 view .LVU144
 180:Src/hdmi_driver.c **** }
 564              		.loc 1 180 1 is_stmt 0 view .LVU145
 565 0020 2046     		mov	r0, r4
 566 0022 10BD     		pop	{r4, pc}
 567              	.LVL36:
 568              	.L33:
 169:Src/hdmi_driver.c **** 	}
 569              		.loc 1 169 7 view .LVU146
 570 0024 0024     		movs	r4, #0
 571 0026 F1E7     		b	.L32
 572              	.L36:
 573              		.align	2
 574              	.L35:
 575 0028 00000000 		.word	hdcmi
 576              		.cfi_endproc
 577              	.LFE136:
 579              		.comm	current_resolution,4,4
 580              		.comm	camera,4,4
 581              		.comm	hdcmi,64,4
 582              		.text
 583              	.Letext0:
 584              		.file 2 "c:\\users\\hungv\\appdata\\roaming\\xpacks\\@gnu-mcu-eclipse\\arm-none-eabi-gcc\\8.2.1-1.
 585              		.file 3 "c:\\users\\hungv\\appdata\\roaming\\xpacks\\@gnu-mcu-eclipse\\arm-none-eabi-gcc\\8.2.1-1.
 586              		.file 4 "Drivers/CMSIS/Include/core_cm4.h"
ARM GAS  C:\Users\hungv\AppData\Local\Temp\ccOLS2Jf.s 			page 15


 587              		.file 5 "Drivers/CMSIS/Device/ST/STM32F4xx/Include/system_stm32f4xx.h"
 588              		.file 6 "Drivers/CMSIS/Device/ST/STM32F4xx/Include/stm32f407xx.h"
 589              		.file 7 "Drivers/CMSIS/Device/ST/STM32F4xx/Include/stm32f4xx.h"
 590              		.file 8 "Drivers/STM32F4xx_HAL_Driver/Inc/stm32f4xx_hal_def.h"
 591              		.file 9 "Drivers/STM32F4xx_HAL_Driver/Inc/stm32f4xx_hal_gpio.h"
 592              		.file 10 "Drivers/STM32F4xx_HAL_Driver/Inc/stm32f4xx_hal_dma.h"
 593              		.file 11 "Drivers/STM32F4xx_HAL_Driver/Inc/stm32f4xx_hal_dcmi_ex.h"
 594              		.file 12 "Drivers/STM32F4xx_HAL_Driver/Inc/stm32f4xx_hal_dcmi.h"
 595              		.file 13 "Inc/hdmi_driver.h"
 596              		.file 14 "Inc/camera.h"
 597              		.file 15 "Inc/io.h"
 598              		.file 16 "Inc/ov2640.h"
 599              		.file 17 "Inc/io_pin_driver.h"
ARM GAS  C:\Users\hungv\AppData\Local\Temp\ccOLS2Jf.s 			page 16

