ARM GAS  C:\Users\hungv\AppData\Local\Temp\cckPIcAY.s 			page 1


   1              		.cpu cortex-m4
   2              		.eabi_attribute 27, 1
   3              		.eabi_attribute 28, 1
   4              		.eabi_attribute 20, 1
   5              		.eabi_attribute 21, 1
   6              		.eabi_attribute 23, 3
   7              		.eabi_attribute 24, 1
   8              		.eabi_attribute 25, 1
   9              		.eabi_attribute 26, 1
  10              		.eabi_attribute 30, 1
  11              		.eabi_attribute 34, 1
  12              		.eabi_attribute 18, 4
  13              		.file	"ov2640.c"
  14              		.text
  15              	.Ltext0:
  16              		.cfi_sections	.debug_frame
  17              		.section	.text.ov2640_ConvertValue,"ax",%progbits
  18              		.align	1
  19              		.arch armv7e-m
  20              		.syntax unified
  21              		.thumb
  22              		.thumb_func
  23              		.fpu fpv4-sp-d16
  25              	ov2640_ConvertValue:
  26              	.LVL0:
  27              	.LFB133:
  28              		.file 1 "Src/ov2640.c"
   1:Src/ov2640.c  **** /**
   2:Src/ov2640.c  ****   ******************************************************************************
   3:Src/ov2640.c  ****   * @file    ov2640.c
   4:Src/ov2640.c  ****   * @author  MCD Application Team
   5:Src/ov2640.c  ****   * @version V1.0.2
   6:Src/ov2640.c  ****   * @date    02-December-2014
   7:Src/ov2640.c  ****   * @brief   This file provides the OV2640 camera driver
   8:Src/ov2640.c  ****   ******************************************************************************
   9:Src/ov2640.c  ****   * @attention
  10:Src/ov2640.c  ****   *
  11:Src/ov2640.c  ****   * <h2><center>&copy; COPYRIGHT(c) 2014 STMicroelectronics</center></h2>
  12:Src/ov2640.c  ****   *
  13:Src/ov2640.c  ****   * Redistribution and use in source and binary forms, with or without modification,
  14:Src/ov2640.c  ****   * are permitted provided that the following conditions are met:
  15:Src/ov2640.c  ****   *   1. Redistributions of source code must retain the above copyright notice,
  16:Src/ov2640.c  ****   *      this list of conditions and the following disclaimer.
  17:Src/ov2640.c  ****   *   2. Redistributions in binary form must reproduce the above copyright notice,
  18:Src/ov2640.c  ****   *      this list of conditions and the following disclaimer in the documentation
  19:Src/ov2640.c  ****   *      and/or other materials provided with the distribution.
  20:Src/ov2640.c  ****   *   3. Neither the name of STMicroelectronics nor the names of its contributors
  21:Src/ov2640.c  ****   *      may be used to endorse or promote products derived from this software
  22:Src/ov2640.c  ****   *      without specific prior written permission.
  23:Src/ov2640.c  ****   *
  24:Src/ov2640.c  ****   * THIS SOFTWARE IS PROVIDED BY THE COPYRIGHT HOLDERS AND CONTRIBUTORS "AS IS"
  25:Src/ov2640.c  ****   * AND ANY EXPRESS OR IMPLIED WARRANTIES, INCLUDING, BUT NOT LIMITED TO, THE
  26:Src/ov2640.c  ****   * IMPLIED WARRANTIES OF MERCHANTABILITY AND FITNESS FOR A PARTICULAR PURPOSE ARE
  27:Src/ov2640.c  ****   * DISCLAIMED. IN NO EVENT SHALL THE COPYRIGHT HOLDER OR CONTRIBUTORS BE LIABLE
  28:Src/ov2640.c  ****   * FOR ANY DIRECT, INDIRECT, INCIDENTAL, SPECIAL, EXEMPLARY, OR CONSEQUENTIAL
  29:Src/ov2640.c  ****   * DAMAGES (INCLUDING, BUT NOT LIMITED TO, PROCUREMENT OF SUBSTITUTE GOODS OR
  30:Src/ov2640.c  ****   * SERVICES; LOSS OF USE, DATA, OR PROFITS; OR BUSINESS INTERRUPTION) HOWEVER
ARM GAS  C:\Users\hungv\AppData\Local\Temp\cckPIcAY.s 			page 2


  31:Src/ov2640.c  ****   * CAUSED AND ON ANY THEORY OF LIABILITY, WHETHER IN CONTRACT, STRICT LIABILITY,
  32:Src/ov2640.c  ****   * OR TORT (INCLUDING NEGLIGENCE OR OTHERWISE) ARISING IN ANY WAY OUT OF THE USE
  33:Src/ov2640.c  ****   * OF THIS SOFTWARE, EVEN IF ADVISED OF THE POSSIBILITY OF SUCH DAMAGE.
  34:Src/ov2640.c  ****   *
  35:Src/ov2640.c  ****   ******************************************************************************
  36:Src/ov2640.c  ****   */ 
  37:Src/ov2640.c  **** 
  38:Src/ov2640.c  **** /* Includes ------------------------------------------------------------------*/
  39:Src/ov2640.c  **** #include "i2c_driver.h"
  40:Src/ov2640.c  **** #include "ov2640.h"
  41:Src/ov2640.c  **** 
  42:Src/ov2640.c  **** /** @addtogroup BSP
  43:Src/ov2640.c  ****   * @{
  44:Src/ov2640.c  ****   */ 
  45:Src/ov2640.c  **** 
  46:Src/ov2640.c  **** /** @addtogroup Components
  47:Src/ov2640.c  ****   * @{
  48:Src/ov2640.c  ****   */ 
  49:Src/ov2640.c  ****   
  50:Src/ov2640.c  **** /** @addtogroup OV2640
  51:Src/ov2640.c  ****   * @brief     This file provides a set of functions needed to drive the 
  52:Src/ov2640.c  ****   *            OV2640 Camera module.
  53:Src/ov2640.c  ****   * @{
  54:Src/ov2640.c  ****   */
  55:Src/ov2640.c  **** 
  56:Src/ov2640.c  **** /** @defgroup OV2640_Private_TypesDefinitions
  57:Src/ov2640.c  ****   * @{
  58:Src/ov2640.c  ****   */ 
  59:Src/ov2640.c  **** 
  60:Src/ov2640.c  **** /**
  61:Src/ov2640.c  ****   * @}
  62:Src/ov2640.c  ****   */ 
  63:Src/ov2640.c  **** 
  64:Src/ov2640.c  **** /** @defgroup OV2640_Private_Defines
  65:Src/ov2640.c  ****   * @{
  66:Src/ov2640.c  ****   */
  67:Src/ov2640.c  **** 
  68:Src/ov2640.c  **** /**
  69:Src/ov2640.c  ****   * @}
  70:Src/ov2640.c  ****   */ 
  71:Src/ov2640.c  ****   
  72:Src/ov2640.c  **** /** @defgroup OV2640_Private_Macros
  73:Src/ov2640.c  ****   * @{
  74:Src/ov2640.c  ****   */
  75:Src/ov2640.c  ****      
  76:Src/ov2640.c  **** /**
  77:Src/ov2640.c  ****   * @}
  78:Src/ov2640.c  ****   */  
  79:Src/ov2640.c  ****   
  80:Src/ov2640.c  **** /** @defgroup OV2640_Private_FunctionPrototypes
  81:Src/ov2640.c  ****   * @{
  82:Src/ov2640.c  ****   */
  83:Src/ov2640.c  **** static uint32_t ov2640_ConvertValue(uint32_t feature, uint32_t value);
  84:Src/ov2640.c  **** /**
  85:Src/ov2640.c  ****   * @}
  86:Src/ov2640.c  ****   */ 
  87:Src/ov2640.c  ****   
ARM GAS  C:\Users\hungv\AppData\Local\Temp\cckPIcAY.s 			page 3


  88:Src/ov2640.c  **** /** @defgroup OV2640_Private_Variables
  89:Src/ov2640.c  ****   * @{
  90:Src/ov2640.c  ****   */        
  91:Src/ov2640.c  **** 
  92:Src/ov2640.c  **** CAMERA_DrvTypeDef   ov2640_drv = 
  93:Src/ov2640.c  **** {
  94:Src/ov2640.c  ****   ov2640_Init,
  95:Src/ov2640.c  ****   ov2640_ReadID,  
  96:Src/ov2640.c  ****   ov2640_Config,
  97:Src/ov2640.c  **** };
  98:Src/ov2640.c  **** 
  99:Src/ov2640.c  **** /* Initialization sequence for 480x272 resolution */
 100:Src/ov2640.c  **** const unsigned char OV2640_480x272[][2]=
 101:Src/ov2640.c  **** {
 102:Src/ov2640.c  ****   {0xff, 0x00},  /* Device control register list Table 12 */
 103:Src/ov2640.c  ****   {0x2c, 0xff},  /* Reserved                              */
 104:Src/ov2640.c  ****   {0x2e, 0xdf},  /* Reserved                              */
 105:Src/ov2640.c  ****   {0xff, 0x01},  /* Device control register list Table 13 */
 106:Src/ov2640.c  ****   {0x3c, 0x32},  /* Reserved                              */
 107:Src/ov2640.c  ****   {0x11, 0x00},  /* Clock Rate Control                    */
 108:Src/ov2640.c  ****   {0x09, 0x02},  /* Common control 2                      */
 109:Src/ov2640.c  ****   {0x04, 0xA8},  /* Mirror                                */
 110:Src/ov2640.c  ****   {0x13, 0xe5},  /* Common control 8                      */
 111:Src/ov2640.c  ****   {0x14, 0x48},  /* Common control 9                      */
 112:Src/ov2640.c  ****   {0x2c, 0x0c},  /* Reserved                              */
 113:Src/ov2640.c  ****   {0x33, 0x78},  /* Reserved                              */
 114:Src/ov2640.c  ****   {0x3a, 0x33},  /* Reserved                              */
 115:Src/ov2640.c  ****   {0x3b, 0xfB},  /* Reserved                              */
 116:Src/ov2640.c  ****   {0x3e, 0x00},  /* Reserved                              */
 117:Src/ov2640.c  ****   {0x43, 0x11},  /* Reserved                              */
 118:Src/ov2640.c  ****   {0x16, 0x10},  /* Reserved                              */
 119:Src/ov2640.c  ****   {0x4a, 0x81},  /* Reserved                              */
 120:Src/ov2640.c  ****   {0x21, 0x99},  /* Reserved                              */
 121:Src/ov2640.c  ****   {0x24, 0x40},  /* Luminance signal High range           */
 122:Src/ov2640.c  ****   {0x25, 0x38},  /* Luminance signal low range            */
 123:Src/ov2640.c  ****   {0x26, 0x82},  /*                                       */
 124:Src/ov2640.c  ****   {0x5c, 0x00},  /* Reserved                              */
 125:Src/ov2640.c  ****   {0x63, 0x00},  /* Reserved                              */
 126:Src/ov2640.c  ****   {0x46, 0x3f},  /* Frame length adjustment               */
 127:Src/ov2640.c  ****   {0x0c, 0x3c},  /* Common control 3                      */
 128:Src/ov2640.c  ****   {0x61, 0x70},  /* Histogram algo low level              */
 129:Src/ov2640.c  ****   {0x62, 0x80},  /* Histogram algo high level             */
 130:Src/ov2640.c  ****   {0x7c, 0x05},  /* Reserved                              */
 131:Src/ov2640.c  ****   {0x20, 0x80},  /* Reserved                              */
 132:Src/ov2640.c  ****   {0x28, 0x30},  /* Reserved                              */
 133:Src/ov2640.c  ****   {0x6c, 0x00},  /* Reserved                              */
 134:Src/ov2640.c  ****   {0x6d, 0x80},  /* Reserved                              */
 135:Src/ov2640.c  ****   {0x6e, 0x00},  /* Reserved                              */
 136:Src/ov2640.c  ****   {0x70, 0x02},  /* Reserved                              */
 137:Src/ov2640.c  ****   {0x71, 0x94},  /* Reserved                              */
 138:Src/ov2640.c  ****   {0x73, 0xc1},  /* Reserved                              */
 139:Src/ov2640.c  ****   {0x3d, 0x34},  /* Reserved                              */
 140:Src/ov2640.c  ****   {0x5a, 0x57},  /* Reserved                              */
 141:Src/ov2640.c  ****   {0x12, 0x00},  /* Common control 7                      */
 142:Src/ov2640.c  ****   {0x11, 0x00},  /* Clock Rate Control                   2*/
 143:Src/ov2640.c  ****   {0x17, 0x11},  /* Horiz window start MSB 8bits          */
 144:Src/ov2640.c  ****   {0x18, 0x75},  /* Horiz window end MSB 8bits            */
ARM GAS  C:\Users\hungv\AppData\Local\Temp\cckPIcAY.s 			page 4


 145:Src/ov2640.c  ****   {0x19, 0x01},  /* Vert window line start MSB 8bits      */
 146:Src/ov2640.c  ****   {0x1a, 0x97},  /* Vert window line end MSB 8bits        */
 147:Src/ov2640.c  ****   {0x32, 0x36},
 148:Src/ov2640.c  ****   {0x03, 0x0f},
 149:Src/ov2640.c  ****   {0x37, 0x40},
 150:Src/ov2640.c  ****   {0x4f, 0xbb},
 151:Src/ov2640.c  ****   {0x50, 0x9c},
 152:Src/ov2640.c  ****   {0x5a, 0x57},
 153:Src/ov2640.c  ****   {0x6d, 0x80},
 154:Src/ov2640.c  ****   {0x6d, 0x38},
 155:Src/ov2640.c  ****   {0x39, 0x02},
 156:Src/ov2640.c  ****   {0x35, 0x88},
 157:Src/ov2640.c  ****   {0x22, 0x0a},
 158:Src/ov2640.c  ****   {0x37, 0x40},
 159:Src/ov2640.c  ****   {0x23, 0x00},
 160:Src/ov2640.c  ****   {0x34, 0xa0},
 161:Src/ov2640.c  ****   {0x36, 0x1a},
 162:Src/ov2640.c  ****   {0x06, 0x02},
 163:Src/ov2640.c  ****   {0x07, 0xc0},
 164:Src/ov2640.c  ****   {0x0d, 0xb7},
 165:Src/ov2640.c  ****   {0x0e, 0x01},
 166:Src/ov2640.c  ****   {0x4c, 0x00},
 167:Src/ov2640.c  ****   {0xff, 0x00},
 168:Src/ov2640.c  ****   {0xe5, 0x7f},
 169:Src/ov2640.c  ****   {0xf9, 0xc0},
 170:Src/ov2640.c  ****   {0x41, 0x24},
 171:Src/ov2640.c  ****   {0xe0, 0x14},
 172:Src/ov2640.c  ****   {0x76, 0xff},
 173:Src/ov2640.c  ****   {0x33, 0xa0},
 174:Src/ov2640.c  ****   {0x42, 0x20},
 175:Src/ov2640.c  ****   {0x43, 0x18},
 176:Src/ov2640.c  ****   {0x4c, 0x00},
 177:Src/ov2640.c  ****   {0x87, 0xd0},
 178:Src/ov2640.c  ****   {0x88, 0x3f},
 179:Src/ov2640.c  ****   {0xd7, 0x03},
 180:Src/ov2640.c  ****   {0xd9, 0x10},
 181:Src/ov2640.c  ****   {0xd3, 0x82},
 182:Src/ov2640.c  ****   {0xc8, 0x08},
 183:Src/ov2640.c  ****   {0xc9, 0x80},
 184:Src/ov2640.c  ****   {0x7d, 0x00},
 185:Src/ov2640.c  ****   {0x7c, 0x03},
 186:Src/ov2640.c  ****   {0x7d, 0x48},
 187:Src/ov2640.c  ****   {0x7c, 0x08},
 188:Src/ov2640.c  ****   {0x7d, 0x20},
 189:Src/ov2640.c  ****   {0x7d, 0x10},
 190:Src/ov2640.c  ****   {0x7d, 0x0e},
 191:Src/ov2640.c  ****   {0x90, 0x00},
 192:Src/ov2640.c  ****   {0x91, 0x0e},
 193:Src/ov2640.c  ****   {0x91, 0x1a},
 194:Src/ov2640.c  ****   {0x91, 0x31},
 195:Src/ov2640.c  ****   {0x91, 0x5a},
 196:Src/ov2640.c  ****   {0x91, 0x69},
 197:Src/ov2640.c  ****   {0x91, 0x75},
 198:Src/ov2640.c  ****   {0x91, 0x7e},
 199:Src/ov2640.c  ****   {0x91, 0x88},
 200:Src/ov2640.c  ****   {0x91, 0x8f},
 201:Src/ov2640.c  ****   {0x91, 0x96},
ARM GAS  C:\Users\hungv\AppData\Local\Temp\cckPIcAY.s 			page 5


 202:Src/ov2640.c  ****   {0x91, 0xa3},
 203:Src/ov2640.c  ****   {0x91, 0xaf},
 204:Src/ov2640.c  ****   {0x91, 0xc4},
 205:Src/ov2640.c  ****   {0x91, 0xd7},
 206:Src/ov2640.c  ****   {0x91, 0xe8},
 207:Src/ov2640.c  ****   {0x91, 0x20},
 208:Src/ov2640.c  ****   {0x92, 0x00},
 209:Src/ov2640.c  ****   {0x93, 0x06},
 210:Src/ov2640.c  ****   {0x93, 0xe3},
 211:Src/ov2640.c  ****   {0x93, 0x02},
 212:Src/ov2640.c  ****   {0x93, 0x02},
 213:Src/ov2640.c  ****   {0x93, 0x00},
 214:Src/ov2640.c  ****   {0x93, 0x04},
 215:Src/ov2640.c  ****   {0x93, 0x00},
 216:Src/ov2640.c  ****   {0x93, 0x03},
 217:Src/ov2640.c  ****   {0x93, 0x00},
 218:Src/ov2640.c  ****   {0x93, 0x00},
 219:Src/ov2640.c  ****   {0x93, 0x00},
 220:Src/ov2640.c  ****   {0x93, 0x00},
 221:Src/ov2640.c  ****   {0x93, 0x00},
 222:Src/ov2640.c  ****   {0x93, 0x00},
 223:Src/ov2640.c  ****   {0x93, 0x00},
 224:Src/ov2640.c  ****   {0x96, 0x00},
 225:Src/ov2640.c  ****   {0x97, 0x08},
 226:Src/ov2640.c  ****   {0x97, 0x19},
 227:Src/ov2640.c  ****   {0x97, 0x02},
 228:Src/ov2640.c  ****   {0x97, 0x0c},
 229:Src/ov2640.c  ****   {0x97, 0x24},
 230:Src/ov2640.c  ****   {0x97, 0x30},
 231:Src/ov2640.c  ****   {0x97, 0x28},
 232:Src/ov2640.c  ****   {0x97, 0x26},
 233:Src/ov2640.c  ****   {0x97, 0x02},
 234:Src/ov2640.c  ****   {0x97, 0x98},
 235:Src/ov2640.c  ****   {0x97, 0x80},
 236:Src/ov2640.c  ****   {0x97, 0x00},
 237:Src/ov2640.c  ****   {0x97, 0x00},
 238:Src/ov2640.c  ****   {0xc3, 0xef},
 239:Src/ov2640.c  ****   {0xff, 0x00},
 240:Src/ov2640.c  ****   {0xba, 0xdc},
 241:Src/ov2640.c  ****   {0xbb, 0x08},
 242:Src/ov2640.c  ****   {0xb6, 0x24},
 243:Src/ov2640.c  ****   {0xb8, 0x33},
 244:Src/ov2640.c  ****   {0xb7, 0x20},
 245:Src/ov2640.c  ****   {0xb9, 0x30},
 246:Src/ov2640.c  ****   {0xb3, 0xb4},
 247:Src/ov2640.c  ****   {0xb4, 0xca},
 248:Src/ov2640.c  ****   {0xb5, 0x43},
 249:Src/ov2640.c  ****   {0xb0, 0x5c},
 250:Src/ov2640.c  ****   {0xb1, 0x4f},
 251:Src/ov2640.c  ****   {0xb2, 0x06},
 252:Src/ov2640.c  ****   {0xc7, 0x00},
 253:Src/ov2640.c  ****   {0xc6, 0x51},
 254:Src/ov2640.c  ****   {0xc5, 0x11},
 255:Src/ov2640.c  ****   {0xc4, 0x9c},
 256:Src/ov2640.c  ****   {0xbf, 0x00},
 257:Src/ov2640.c  ****   {0xbc, 0x64},
 258:Src/ov2640.c  ****   {0xa6, 0x00},
ARM GAS  C:\Users\hungv\AppData\Local\Temp\cckPIcAY.s 			page 6


 259:Src/ov2640.c  ****   {0xa7, 0x1e},
 260:Src/ov2640.c  ****   {0xa7, 0x6b},
 261:Src/ov2640.c  ****   {0xa7, 0x47},
 262:Src/ov2640.c  ****   {0xa7, 0x33},
 263:Src/ov2640.c  ****   {0xa7, 0x00},
 264:Src/ov2640.c  ****   {0xa7, 0x23},
 265:Src/ov2640.c  ****   {0xa7, 0x2e},
 266:Src/ov2640.c  ****   {0xa7, 0x85},
 267:Src/ov2640.c  ****   {0xa7, 0x42},
 268:Src/ov2640.c  ****   {0xa7, 0x33},
 269:Src/ov2640.c  ****   {0xa7, 0x00},
 270:Src/ov2640.c  ****   {0xa7, 0x23},
 271:Src/ov2640.c  ****   {0xa7, 0x1b},
 272:Src/ov2640.c  ****   {0xa7, 0x74},
 273:Src/ov2640.c  ****   {0xa7, 0x42},
 274:Src/ov2640.c  ****   {0xa7, 0x33},
 275:Src/ov2640.c  ****   {0xa7, 0x00},
 276:Src/ov2640.c  ****   {0xa7, 0x23},
 277:Src/ov2640.c  ****   {0xc0, 0xc8},
 278:Src/ov2640.c  ****   {0xc1, 0x96},
 279:Src/ov2640.c  ****   {0x8c, 0x00},
 280:Src/ov2640.c  ****   {0x86, 0x3d},
 281:Src/ov2640.c  ****   {0x50, 0x92},
 282:Src/ov2640.c  ****   {0x51, 0x90},
 283:Src/ov2640.c  ****   {0x52, 0x2c},
 284:Src/ov2640.c  ****   {0x53, 0x00},
 285:Src/ov2640.c  ****   {0x54, 0x00},
 286:Src/ov2640.c  ****   {0x55, 0x88},
 287:Src/ov2640.c  ****   {0x5a, 0x50},
 288:Src/ov2640.c  ****   {0x5b, 0x3c},
 289:Src/ov2640.c  ****   {0x5c, 0x00},
 290:Src/ov2640.c  ****   {0xd3, 0x04},
 291:Src/ov2640.c  ****   {0x7f, 0x00},
 292:Src/ov2640.c  ****   {0xda, 0x00},
 293:Src/ov2640.c  ****   {0xe5, 0x1f},
 294:Src/ov2640.c  ****   {0xe1, 0x67},
 295:Src/ov2640.c  ****   {0xe0, 0x00},
 296:Src/ov2640.c  ****   {0xdd, 0x7f},
 297:Src/ov2640.c  ****   {0x05, 0x00},
 298:Src/ov2640.c  ****   {0xff, 0x00},
 299:Src/ov2640.c  ****   {0xe0, 0x04},
 300:Src/ov2640.c  ****   {0xc0, 0xc8},
 301:Src/ov2640.c  ****   {0xc1, 0x96},
 302:Src/ov2640.c  ****   {0x86, 0x3d},
 303:Src/ov2640.c  ****   {0x50, 0x92},
 304:Src/ov2640.c  ****   {0x51, 0x90},
 305:Src/ov2640.c  ****   {0x52, 0x2c},
 306:Src/ov2640.c  ****   {0x53, 0x00},
 307:Src/ov2640.c  ****   {0x54, 0x00},
 308:Src/ov2640.c  ****   {0x55, 0x88},
 309:Src/ov2640.c  ****   {0x57, 0x00},
 310:Src/ov2640.c  ****   {0x5a, 0x50},
 311:Src/ov2640.c  ****   {0x5b, 0x3c},
 312:Src/ov2640.c  ****   {0x5c, 0x00},
 313:Src/ov2640.c  ****   {0xd3, 0x04},
 314:Src/ov2640.c  ****   {0xe0, 0x00},
 315:Src/ov2640.c  ****   {0xFF, 0x00},
ARM GAS  C:\Users\hungv\AppData\Local\Temp\cckPIcAY.s 			page 7


 316:Src/ov2640.c  ****   {0x05, 0x00},
 317:Src/ov2640.c  ****   {0xDA, 0x08},
 318:Src/ov2640.c  ****   {0xda, 0x09},
 319:Src/ov2640.c  ****   {0x98, 0x00},
 320:Src/ov2640.c  ****   {0x99, 0x00},
 321:Src/ov2640.c  ****   {0x00, 0x00},
 322:Src/ov2640.c  ****   {0xff, 0x00},
 323:Src/ov2640.c  ****   {0xe0, 0x04},
 324:Src/ov2640.c  ****   {0xc0, 0xc8},
 325:Src/ov2640.c  ****   {0xc1, 0x96},
 326:Src/ov2640.c  ****   {0x86, 0x35},
 327:Src/ov2640.c  ****   {0x50, 0x80},
 328:Src/ov2640.c  ****   {0x51, 0x90},
 329:Src/ov2640.c  ****   {0x52, 0x2c},
 330:Src/ov2640.c  ****   {0x53, 0x00},
 331:Src/ov2640.c  ****   {0x54, 0x00},
 332:Src/ov2640.c  ****   {0x55, 0x88},
 333:Src/ov2640.c  ****   {0x57, 0x00},
 334:Src/ov2640.c  ****   {0x5a, 0x78},
 335:Src/ov2640.c  ****   {0x5b, 0x44},
 336:Src/ov2640.c  ****   {0x5c, 0x00},
 337:Src/ov2640.c  ****   {0xd3, 0x04},
 338:Src/ov2640.c  ****   {0xe0, 0x00},
 339:Src/ov2640.c  **** };
 340:Src/ov2640.c  **** 
 341:Src/ov2640.c  **** /* Initialization sequence for VGA resolution (640x480)*/
 342:Src/ov2640.c  **** const unsigned char OV2640_VGA[][2]=
 343:Src/ov2640.c  **** {
 344:Src/ov2640.c  ****   {0xff, 0x00},  /* Device control register list Table 12 */
 345:Src/ov2640.c  ****   {0x2c, 0xff},  /* Reserved                              */
 346:Src/ov2640.c  ****   {0x2e, 0xdf},  /* Reserved                              */
 347:Src/ov2640.c  ****   {0xff, 0x01},  /* Device control register list Table 13 */
 348:Src/ov2640.c  ****   {0x3c, 0x32},  /* Reserved                              */
 349:Src/ov2640.c  ****   {0x11, 0x00},  /* Clock Rate Control                    */
 350:Src/ov2640.c  ****   {0x09, 0x02},  /* Common control 2                      */
 351:Src/ov2640.c  ****   {0x04, 0xA8},  /* Mirror                                */
 352:Src/ov2640.c  ****   {0x13, 0xe5},  /* Common control 8                      */
 353:Src/ov2640.c  ****   {0x14, 0x48},  /* Common control 9                      */
 354:Src/ov2640.c  ****   {0x2c, 0x0c},  /* Reserved                              */
 355:Src/ov2640.c  ****   {0x33, 0x78},  /* Reserved                              */
 356:Src/ov2640.c  ****   {0x3a, 0x33},  /* Reserved                              */
 357:Src/ov2640.c  ****   {0x3b, 0xfB},  /* Reserved                              */
 358:Src/ov2640.c  ****   {0x3e, 0x00},  /* Reserved                              */
 359:Src/ov2640.c  ****   {0x43, 0x11},  /* Reserved                              */
 360:Src/ov2640.c  ****   {0x16, 0x10},  /* Reserved                              */
 361:Src/ov2640.c  ****   {0x4a, 0x81},  /* Reserved                              */
 362:Src/ov2640.c  ****   {0x21, 0x99},  /* Reserved                              */
 363:Src/ov2640.c  ****   {0x24, 0x40},  /* Luminance signal High range           */
 364:Src/ov2640.c  ****   {0x25, 0x38},  /* Luminance signal low range            */
 365:Src/ov2640.c  ****   {0x26, 0x82},  /*                                       */
 366:Src/ov2640.c  ****   {0x5c, 0x00},  /* Reserved                              */
 367:Src/ov2640.c  ****   {0x63, 0x00},  /* Reserved                              */
 368:Src/ov2640.c  ****   {0x46, 0x3f},  /* Frame length adjustment               */
 369:Src/ov2640.c  ****   {0x0c, 0x3c},  /* Common control 3                      */
 370:Src/ov2640.c  ****   {0x61, 0x70},  /* Histogram algo low level              */
 371:Src/ov2640.c  ****   {0x62, 0x80},  /* Histogram algo high level             */
 372:Src/ov2640.c  ****   {0x7c, 0x05},  /* Reserved                              */
ARM GAS  C:\Users\hungv\AppData\Local\Temp\cckPIcAY.s 			page 8


 373:Src/ov2640.c  ****   {0x20, 0x80},  /* Reserved                              */
 374:Src/ov2640.c  ****   {0x28, 0x30},  /* Reserved                              */
 375:Src/ov2640.c  ****   {0x6c, 0x00},  /* Reserved                              */
 376:Src/ov2640.c  ****   {0x6d, 0x80},  /* Reserved                              */
 377:Src/ov2640.c  ****   {0x6e, 0x00},  /* Reserved                              */
 378:Src/ov2640.c  ****   {0x70, 0x02},  /* Reserved                              */
 379:Src/ov2640.c  ****   {0x71, 0x94},  /* Reserved                              */
 380:Src/ov2640.c  ****   {0x73, 0xc1},  /* Reserved                              */
 381:Src/ov2640.c  ****   {0x3d, 0x34},  /* Reserved                              */
 382:Src/ov2640.c  ****   {0x5a, 0x57},  /* Reserved                              */
 383:Src/ov2640.c  ****   {0x12, 0x00},  /* Common control 7                      */
 384:Src/ov2640.c  ****   {0x11, 0x00},  /* Clock Rate Control                   2*/
 385:Src/ov2640.c  ****   {0x17, 0x11},  /* Horiz window start MSB 8bits          */
 386:Src/ov2640.c  ****   {0x18, 0x75},  /* Horiz window end MSB 8bits            */
 387:Src/ov2640.c  ****   {0x19, 0x01},  /* Vert window line start MSB 8bits      */
 388:Src/ov2640.c  ****   {0x1a, 0x97},  /* Vert window line end MSB 8bits        */
 389:Src/ov2640.c  ****   {0x32, 0x36},
 390:Src/ov2640.c  ****   {0x03, 0x0f},
 391:Src/ov2640.c  ****   {0x37, 0x40},
 392:Src/ov2640.c  ****   {0x4f, 0xbb},
 393:Src/ov2640.c  ****   {0x50, 0x9c},
 394:Src/ov2640.c  ****   {0x5a, 0x57},
 395:Src/ov2640.c  ****   {0x6d, 0x80},
 396:Src/ov2640.c  ****   {0x6d, 0x38},
 397:Src/ov2640.c  ****   {0x39, 0x02},
 398:Src/ov2640.c  ****   {0x35, 0x88},
 399:Src/ov2640.c  ****   {0x22, 0x0a},
 400:Src/ov2640.c  ****   {0x37, 0x40},
 401:Src/ov2640.c  ****   {0x23, 0x00},
 402:Src/ov2640.c  ****   {0x34, 0xa0},
 403:Src/ov2640.c  ****   {0x36, 0x1a},
 404:Src/ov2640.c  ****   {0x06, 0x02},
 405:Src/ov2640.c  ****   {0x07, 0xc0},
 406:Src/ov2640.c  ****   {0x0d, 0xb7},
 407:Src/ov2640.c  ****   {0x0e, 0x01},
 408:Src/ov2640.c  ****   {0x4c, 0x00},
 409:Src/ov2640.c  ****   {0xff, 0x00},
 410:Src/ov2640.c  ****   {0xe5, 0x7f},
 411:Src/ov2640.c  ****   {0xf9, 0xc0},
 412:Src/ov2640.c  ****   {0x41, 0x24},
 413:Src/ov2640.c  ****   {0xe0, 0x14},
 414:Src/ov2640.c  ****   {0x76, 0xff},
 415:Src/ov2640.c  ****   {0x33, 0xa0},
 416:Src/ov2640.c  ****   {0x42, 0x20},
 417:Src/ov2640.c  ****   {0x43, 0x18},
 418:Src/ov2640.c  ****   {0x4c, 0x00},
 419:Src/ov2640.c  ****   {0x87, 0xd0},
 420:Src/ov2640.c  ****   {0x88, 0x3f},
 421:Src/ov2640.c  ****   {0xd7, 0x03},
 422:Src/ov2640.c  ****   {0xd9, 0x10},
 423:Src/ov2640.c  ****   {0xd3, 0x82},
 424:Src/ov2640.c  ****   {0xc8, 0x08},
 425:Src/ov2640.c  ****   {0xc9, 0x80},
 426:Src/ov2640.c  ****   {0x7d, 0x00},
 427:Src/ov2640.c  ****   {0x7c, 0x03},
 428:Src/ov2640.c  ****   {0x7d, 0x48},
 429:Src/ov2640.c  ****   {0x7c, 0x08},
ARM GAS  C:\Users\hungv\AppData\Local\Temp\cckPIcAY.s 			page 9


 430:Src/ov2640.c  ****   {0x7d, 0x20},
 431:Src/ov2640.c  ****   {0x7d, 0x10},
 432:Src/ov2640.c  ****   {0x7d, 0x0e},
 433:Src/ov2640.c  ****   {0x90, 0x00},
 434:Src/ov2640.c  ****   {0x91, 0x0e},
 435:Src/ov2640.c  ****   {0x91, 0x1a},
 436:Src/ov2640.c  ****   {0x91, 0x31},
 437:Src/ov2640.c  ****   {0x91, 0x5a},
 438:Src/ov2640.c  ****   {0x91, 0x69},
 439:Src/ov2640.c  ****   {0x91, 0x75},
 440:Src/ov2640.c  ****   {0x91, 0x7e},
 441:Src/ov2640.c  ****   {0x91, 0x88},
 442:Src/ov2640.c  ****   {0x91, 0x8f},
 443:Src/ov2640.c  ****   {0x91, 0x96},
 444:Src/ov2640.c  ****   {0x91, 0xa3},
 445:Src/ov2640.c  ****   {0x91, 0xaf},
 446:Src/ov2640.c  ****   {0x91, 0xc4},
 447:Src/ov2640.c  ****   {0x91, 0xd7},
 448:Src/ov2640.c  ****   {0x91, 0xe8},
 449:Src/ov2640.c  ****   {0x91, 0x20},
 450:Src/ov2640.c  ****   {0x92, 0x00},
 451:Src/ov2640.c  ****   {0x93, 0x06},
 452:Src/ov2640.c  ****   {0x93, 0xe3},
 453:Src/ov2640.c  ****   {0x93, 0x02},
 454:Src/ov2640.c  ****   {0x93, 0x02},
 455:Src/ov2640.c  ****   {0x93, 0x00},
 456:Src/ov2640.c  ****   {0x93, 0x04},
 457:Src/ov2640.c  ****   {0x93, 0x00},
 458:Src/ov2640.c  ****   {0x93, 0x03},
 459:Src/ov2640.c  ****   {0x93, 0x00},
 460:Src/ov2640.c  ****   {0x93, 0x00},
 461:Src/ov2640.c  ****   {0x93, 0x00},
 462:Src/ov2640.c  ****   {0x93, 0x00},
 463:Src/ov2640.c  ****   {0x93, 0x00},
 464:Src/ov2640.c  ****   {0x93, 0x00},
 465:Src/ov2640.c  ****   {0x93, 0x00},
 466:Src/ov2640.c  ****   {0x96, 0x00},
 467:Src/ov2640.c  ****   {0x97, 0x08},
 468:Src/ov2640.c  ****   {0x97, 0x19},
 469:Src/ov2640.c  ****   {0x97, 0x02},
 470:Src/ov2640.c  ****   {0x97, 0x0c},
 471:Src/ov2640.c  ****   {0x97, 0x24},
 472:Src/ov2640.c  ****   {0x97, 0x30},
 473:Src/ov2640.c  ****   {0x97, 0x28},
 474:Src/ov2640.c  ****   {0x97, 0x26},
 475:Src/ov2640.c  ****   {0x97, 0x02},
 476:Src/ov2640.c  ****   {0x97, 0x98},
 477:Src/ov2640.c  ****   {0x97, 0x80},
 478:Src/ov2640.c  ****   {0x97, 0x00},
 479:Src/ov2640.c  ****   {0x97, 0x00},
 480:Src/ov2640.c  ****   {0xc3, 0xef},
 481:Src/ov2640.c  ****   {0xff, 0x00},
 482:Src/ov2640.c  ****   {0xba, 0xdc},
 483:Src/ov2640.c  ****   {0xbb, 0x08},
 484:Src/ov2640.c  ****   {0xb6, 0x24},
 485:Src/ov2640.c  ****   {0xb8, 0x33},
 486:Src/ov2640.c  ****   {0xb7, 0x20},
ARM GAS  C:\Users\hungv\AppData\Local\Temp\cckPIcAY.s 			page 10


 487:Src/ov2640.c  ****   {0xb9, 0x30},
 488:Src/ov2640.c  ****   {0xb3, 0xb4},
 489:Src/ov2640.c  ****   {0xb4, 0xca},
 490:Src/ov2640.c  ****   {0xb5, 0x43},
 491:Src/ov2640.c  ****   {0xb0, 0x5c},
 492:Src/ov2640.c  ****   {0xb1, 0x4f},
 493:Src/ov2640.c  ****   {0xb2, 0x06},
 494:Src/ov2640.c  ****   {0xc7, 0x00},
 495:Src/ov2640.c  ****   {0xc6, 0x51},
 496:Src/ov2640.c  ****   {0xc5, 0x11},
 497:Src/ov2640.c  ****   {0xc4, 0x9c},
 498:Src/ov2640.c  ****   {0xbf, 0x00},
 499:Src/ov2640.c  ****   {0xbc, 0x64},
 500:Src/ov2640.c  ****   {0xa6, 0x00},
 501:Src/ov2640.c  ****   {0xa7, 0x1e},
 502:Src/ov2640.c  ****   {0xa7, 0x6b},
 503:Src/ov2640.c  ****   {0xa7, 0x47},
 504:Src/ov2640.c  ****   {0xa7, 0x33},
 505:Src/ov2640.c  ****   {0xa7, 0x00},
 506:Src/ov2640.c  ****   {0xa7, 0x23},
 507:Src/ov2640.c  ****   {0xa7, 0x2e},
 508:Src/ov2640.c  ****   {0xa7, 0x85},
 509:Src/ov2640.c  ****   {0xa7, 0x42},
 510:Src/ov2640.c  ****   {0xa7, 0x33},
 511:Src/ov2640.c  ****   {0xa7, 0x00},
 512:Src/ov2640.c  ****   {0xa7, 0x23},
 513:Src/ov2640.c  ****   {0xa7, 0x1b},
 514:Src/ov2640.c  ****   {0xa7, 0x74},
 515:Src/ov2640.c  ****   {0xa7, 0x42},
 516:Src/ov2640.c  ****   {0xa7, 0x33},
 517:Src/ov2640.c  ****   {0xa7, 0x00},
 518:Src/ov2640.c  ****   {0xa7, 0x23},
 519:Src/ov2640.c  ****   {0xc0, 0xc8},
 520:Src/ov2640.c  ****   {0xc1, 0x96},
 521:Src/ov2640.c  ****   {0x8c, 0x00},
 522:Src/ov2640.c  ****   {0x86, 0x3d},
 523:Src/ov2640.c  ****   {0x50, 0x92},
 524:Src/ov2640.c  ****   {0x51, 0x90},
 525:Src/ov2640.c  ****   {0x52, 0x2c},
 526:Src/ov2640.c  ****   {0x53, 0x00},
 527:Src/ov2640.c  ****   {0x54, 0x00},
 528:Src/ov2640.c  ****   {0x55, 0x88},
 529:Src/ov2640.c  ****   {0x5a, 0x50},
 530:Src/ov2640.c  ****   {0x5b, 0x3c},
 531:Src/ov2640.c  ****   {0x5c, 0x00},
 532:Src/ov2640.c  ****   {0xd3, 0x04},
 533:Src/ov2640.c  ****   {0x7f, 0x00},
 534:Src/ov2640.c  ****   {0xda, 0x00},
 535:Src/ov2640.c  ****   {0xe5, 0x1f},
 536:Src/ov2640.c  ****   {0xe1, 0x67},
 537:Src/ov2640.c  ****   {0xe0, 0x00},
 538:Src/ov2640.c  ****   {0xdd, 0x7f},
 539:Src/ov2640.c  ****   {0x05, 0x00},
 540:Src/ov2640.c  ****   {0xff, 0x00},
 541:Src/ov2640.c  ****   {0xe0, 0x04},
 542:Src/ov2640.c  ****   {0xc0, 0xc8},
 543:Src/ov2640.c  ****   {0xc1, 0x96},
ARM GAS  C:\Users\hungv\AppData\Local\Temp\cckPIcAY.s 			page 11


 544:Src/ov2640.c  ****   {0x86, 0x3d},
 545:Src/ov2640.c  ****   {0x50, 0x92},
 546:Src/ov2640.c  ****   {0x51, 0x90},
 547:Src/ov2640.c  ****   {0x52, 0x2c},
 548:Src/ov2640.c  ****   {0x53, 0x00},
 549:Src/ov2640.c  ****   {0x54, 0x00},
 550:Src/ov2640.c  ****   {0x55, 0x88},
 551:Src/ov2640.c  ****   {0x57, 0x00},
 552:Src/ov2640.c  ****   {0x5a, 0x50},
 553:Src/ov2640.c  ****   {0x5b, 0x3c},
 554:Src/ov2640.c  ****   {0x5c, 0x00},
 555:Src/ov2640.c  ****   {0xd3, 0x04},
 556:Src/ov2640.c  ****   {0xe0, 0x00},
 557:Src/ov2640.c  ****   {0xFF, 0x00},
 558:Src/ov2640.c  ****   {0x05, 0x00},
 559:Src/ov2640.c  ****   {0xDA, 0x08},
 560:Src/ov2640.c  ****   {0xda, 0x09},
 561:Src/ov2640.c  ****   {0x98, 0x00},
 562:Src/ov2640.c  ****   {0x99, 0x00},
 563:Src/ov2640.c  ****   {0x00, 0x00},
 564:Src/ov2640.c  ****   {0xff, 0x00},
 565:Src/ov2640.c  ****   {0xe0, 0x04},
 566:Src/ov2640.c  ****   {0xc0, 0xc8},
 567:Src/ov2640.c  ****   {0xc1, 0x96},
 568:Src/ov2640.c  ****   {0x86, 0x3d},
 569:Src/ov2640.c  ****   {0x50, 0x89},
 570:Src/ov2640.c  ****   {0x51, 0x90},
 571:Src/ov2640.c  ****   {0x52, 0x2c},
 572:Src/ov2640.c  ****   {0x53, 0x00},
 573:Src/ov2640.c  ****   {0x54, 0x00},
 574:Src/ov2640.c  ****   {0x55, 0x88},
 575:Src/ov2640.c  ****   {0x57, 0x00},
 576:Src/ov2640.c  ****   {0x5a, 0xA0},
 577:Src/ov2640.c  ****   {0x5b, 0x78},
 578:Src/ov2640.c  ****   {0x5c, 0x00},
 579:Src/ov2640.c  ****   {0xd3, 0x02},
 580:Src/ov2640.c  ****   {0xe0, 0x00},
 581:Src/ov2640.c  **** };
 582:Src/ov2640.c  **** 
 583:Src/ov2640.c  **** /* Initialization sequence for QVGA resolution (320x240) */
 584:Src/ov2640.c  **** const unsigned char OV2640_QVGA[][2]=
 585:Src/ov2640.c  **** {
 586:Src/ov2640.c  ****   {0xff, 0x00},
 587:Src/ov2640.c  ****   {0x2c, 0xff},
 588:Src/ov2640.c  ****   {0x2e, 0xdf},
 589:Src/ov2640.c  ****   {0xff, 0x01},
 590:Src/ov2640.c  ****   {0x3c, 0x32},
 591:Src/ov2640.c  ****   {0x11, 0x00},
 592:Src/ov2640.c  ****   {0x09, 0x02},
 593:Src/ov2640.c  ****   {0x04, 0xA8},
 594:Src/ov2640.c  ****   {0x13, 0xe5},
 595:Src/ov2640.c  ****   {0x14, 0x48},
 596:Src/ov2640.c  ****   {0x2c, 0x0c},
 597:Src/ov2640.c  ****   {0x33, 0x78},
 598:Src/ov2640.c  ****   {0x3a, 0x33},
 599:Src/ov2640.c  ****   {0x3b, 0xfB},
 600:Src/ov2640.c  ****   {0x3e, 0x00},
ARM GAS  C:\Users\hungv\AppData\Local\Temp\cckPIcAY.s 			page 12


 601:Src/ov2640.c  ****   {0x43, 0x11},
 602:Src/ov2640.c  ****   {0x16, 0x10},
 603:Src/ov2640.c  ****   {0x4a, 0x81},
 604:Src/ov2640.c  ****   {0x21, 0x99},
 605:Src/ov2640.c  ****   {0x24, 0x40},
 606:Src/ov2640.c  ****   {0x25, 0x38},
 607:Src/ov2640.c  ****   {0x26, 0x82},
 608:Src/ov2640.c  ****   {0x5c, 0x00},
 609:Src/ov2640.c  ****   {0x63, 0x00},
 610:Src/ov2640.c  ****   {0x46, 0x3f},
 611:Src/ov2640.c  ****   {0x0c, 0x3c},
 612:Src/ov2640.c  ****   {0x61, 0x70},
 613:Src/ov2640.c  ****   {0x62, 0x80},
 614:Src/ov2640.c  ****   {0x7c, 0x05},
 615:Src/ov2640.c  ****   {0x20, 0x80},
 616:Src/ov2640.c  ****   {0x28, 0x30},
 617:Src/ov2640.c  ****   {0x6c, 0x00},
 618:Src/ov2640.c  ****   {0x6d, 0x80},
 619:Src/ov2640.c  ****   {0x6e, 0x00},
 620:Src/ov2640.c  ****   {0x70, 0x02},
 621:Src/ov2640.c  ****   {0x71, 0x94},
 622:Src/ov2640.c  ****   {0x73, 0xc1},
 623:Src/ov2640.c  ****   {0x3d, 0x34},
 624:Src/ov2640.c  ****   {0x5a, 0x57},
 625:Src/ov2640.c  ****   {0x12, 0x00},
 626:Src/ov2640.c  ****   {0x11, 0x00},
 627:Src/ov2640.c  ****   {0x17, 0x11},
 628:Src/ov2640.c  ****   {0x18, 0x75},
 629:Src/ov2640.c  ****   {0x19, 0x01},
 630:Src/ov2640.c  ****   {0x1a, 0x97},
 631:Src/ov2640.c  ****   {0x32, 0x36},
 632:Src/ov2640.c  ****   {0x03, 0x0f},
 633:Src/ov2640.c  ****   {0x37, 0x40},
 634:Src/ov2640.c  ****   {0x4f, 0xbb},
 635:Src/ov2640.c  ****   {0x50, 0x9c},
 636:Src/ov2640.c  ****   {0x5a, 0x57},
 637:Src/ov2640.c  ****   {0x6d, 0x80},
 638:Src/ov2640.c  ****   {0x6d, 0x38},
 639:Src/ov2640.c  ****   {0x39, 0x02},
 640:Src/ov2640.c  ****   {0x35, 0x88},
 641:Src/ov2640.c  ****   {0x22, 0x0a},
 642:Src/ov2640.c  ****   {0x37, 0x40},
 643:Src/ov2640.c  ****   {0x23, 0x00},
 644:Src/ov2640.c  ****   {0x34, 0xa0},
 645:Src/ov2640.c  ****   {0x36, 0x1a},
 646:Src/ov2640.c  ****   {0x06, 0x02},
 647:Src/ov2640.c  ****   {0x07, 0xc0},
 648:Src/ov2640.c  ****   {0x0d, 0xb7},
 649:Src/ov2640.c  ****   {0x0e, 0x01},
 650:Src/ov2640.c  ****   {0x4c, 0x00},
 651:Src/ov2640.c  ****   {0xff, 0x00},
 652:Src/ov2640.c  ****   {0xe5, 0x7f},
 653:Src/ov2640.c  ****   {0xf9, 0xc0},
 654:Src/ov2640.c  ****   {0x41, 0x24},
 655:Src/ov2640.c  ****   {0xe0, 0x14},
 656:Src/ov2640.c  ****   {0x76, 0xff},
 657:Src/ov2640.c  ****   {0x33, 0xa0},
ARM GAS  C:\Users\hungv\AppData\Local\Temp\cckPIcAY.s 			page 13


 658:Src/ov2640.c  ****   {0x42, 0x20},
 659:Src/ov2640.c  ****   {0x43, 0x18},
 660:Src/ov2640.c  ****   {0x4c, 0x00},
 661:Src/ov2640.c  ****   {0x87, 0xd0},
 662:Src/ov2640.c  ****   {0x88, 0x3f},
 663:Src/ov2640.c  ****   {0xd7, 0x03},
 664:Src/ov2640.c  ****   {0xd9, 0x10},
 665:Src/ov2640.c  ****   {0xd3, 0x82},
 666:Src/ov2640.c  ****   {0xc8, 0x08},
 667:Src/ov2640.c  ****   {0xc9, 0x80},
 668:Src/ov2640.c  ****   {0x7d, 0x00},
 669:Src/ov2640.c  ****   {0x7c, 0x03},
 670:Src/ov2640.c  ****   {0x7d, 0x48},
 671:Src/ov2640.c  ****   {0x7c, 0x08},
 672:Src/ov2640.c  ****   {0x7d, 0x20},
 673:Src/ov2640.c  ****   {0x7d, 0x10},
 674:Src/ov2640.c  ****   {0x7d, 0x0e},
 675:Src/ov2640.c  ****   {0x90, 0x00},
 676:Src/ov2640.c  ****   {0x91, 0x0e},
 677:Src/ov2640.c  ****   {0x91, 0x1a},
 678:Src/ov2640.c  ****   {0x91, 0x31},
 679:Src/ov2640.c  ****   {0x91, 0x5a},
 680:Src/ov2640.c  ****   {0x91, 0x69},
 681:Src/ov2640.c  ****   {0x91, 0x75},
 682:Src/ov2640.c  ****   {0x91, 0x7e},
 683:Src/ov2640.c  ****   {0x91, 0x88},
 684:Src/ov2640.c  ****   {0x91, 0x8f},
 685:Src/ov2640.c  ****   {0x91, 0x96},
 686:Src/ov2640.c  ****   {0x91, 0xa3},
 687:Src/ov2640.c  ****   {0x91, 0xaf},
 688:Src/ov2640.c  ****   {0x91, 0xc4},
 689:Src/ov2640.c  ****   {0x91, 0xd7},
 690:Src/ov2640.c  ****   {0x91, 0xe8},
 691:Src/ov2640.c  ****   {0x91, 0x20},
 692:Src/ov2640.c  ****   {0x92, 0x00},
 693:Src/ov2640.c  ****   {0x93, 0x06},
 694:Src/ov2640.c  ****   {0x93, 0xe3},
 695:Src/ov2640.c  ****   {0x93, 0x02},
 696:Src/ov2640.c  ****   {0x93, 0x02},
 697:Src/ov2640.c  ****   {0x93, 0x00},
 698:Src/ov2640.c  ****   {0x93, 0x04},
 699:Src/ov2640.c  ****   {0x93, 0x00},
 700:Src/ov2640.c  ****   {0x93, 0x03},
 701:Src/ov2640.c  ****   {0x93, 0x00},
 702:Src/ov2640.c  ****   {0x93, 0x00},
 703:Src/ov2640.c  ****   {0x93, 0x00},
 704:Src/ov2640.c  ****   {0x93, 0x00},
 705:Src/ov2640.c  ****   {0x93, 0x00},
 706:Src/ov2640.c  ****   {0x93, 0x00},
 707:Src/ov2640.c  ****   {0x93, 0x00},
 708:Src/ov2640.c  ****   {0x96, 0x00},
 709:Src/ov2640.c  ****   {0x97, 0x08},
 710:Src/ov2640.c  ****   {0x97, 0x19},
 711:Src/ov2640.c  ****   {0x97, 0x02},
 712:Src/ov2640.c  ****   {0x97, 0x0c},
 713:Src/ov2640.c  ****   {0x97, 0x24},
 714:Src/ov2640.c  ****   {0x97, 0x30},
ARM GAS  C:\Users\hungv\AppData\Local\Temp\cckPIcAY.s 			page 14


 715:Src/ov2640.c  ****   {0x97, 0x28},
 716:Src/ov2640.c  ****   {0x97, 0x26},
 717:Src/ov2640.c  ****   {0x97, 0x02},
 718:Src/ov2640.c  ****   {0x97, 0x98},
 719:Src/ov2640.c  ****   {0x97, 0x80},
 720:Src/ov2640.c  ****   {0x97, 0x00},
 721:Src/ov2640.c  ****   {0x97, 0x00},
 722:Src/ov2640.c  ****   {0xc3, 0xef},
 723:Src/ov2640.c  ****   {0xff, 0x00},
 724:Src/ov2640.c  ****   {0xba, 0xdc},
 725:Src/ov2640.c  ****   {0xbb, 0x08},
 726:Src/ov2640.c  ****   {0xb6, 0x24},
 727:Src/ov2640.c  ****   {0xb8, 0x33},
 728:Src/ov2640.c  ****   {0xb7, 0x20},
 729:Src/ov2640.c  ****   {0xb9, 0x30},
 730:Src/ov2640.c  ****   {0xb3, 0xb4},
 731:Src/ov2640.c  ****   {0xb4, 0xca},
 732:Src/ov2640.c  ****   {0xb5, 0x43},
 733:Src/ov2640.c  ****   {0xb0, 0x5c},
 734:Src/ov2640.c  ****   {0xb1, 0x4f},
 735:Src/ov2640.c  ****   {0xb2, 0x06},
 736:Src/ov2640.c  ****   {0xc7, 0x00},
 737:Src/ov2640.c  ****   {0xc6, 0x51},
 738:Src/ov2640.c  ****   {0xc5, 0x11},
 739:Src/ov2640.c  ****   {0xc4, 0x9c},
 740:Src/ov2640.c  ****   {0xbf, 0x00},
 741:Src/ov2640.c  ****   {0xbc, 0x64},
 742:Src/ov2640.c  ****   {0xa6, 0x00},
 743:Src/ov2640.c  ****   {0xa7, 0x1e},
 744:Src/ov2640.c  ****   {0xa7, 0x6b},
 745:Src/ov2640.c  ****   {0xa7, 0x47},
 746:Src/ov2640.c  ****   {0xa7, 0x33},
 747:Src/ov2640.c  ****   {0xa7, 0x00},
 748:Src/ov2640.c  ****   {0xa7, 0x23},
 749:Src/ov2640.c  ****   {0xa7, 0x2e},
 750:Src/ov2640.c  ****   {0xa7, 0x85},
 751:Src/ov2640.c  ****   {0xa7, 0x42},
 752:Src/ov2640.c  ****   {0xa7, 0x33},
 753:Src/ov2640.c  ****   {0xa7, 0x00},
 754:Src/ov2640.c  ****   {0xa7, 0x23},
 755:Src/ov2640.c  ****   {0xa7, 0x1b},
 756:Src/ov2640.c  ****   {0xa7, 0x74},
 757:Src/ov2640.c  ****   {0xa7, 0x42},
 758:Src/ov2640.c  ****   {0xa7, 0x33},
 759:Src/ov2640.c  ****   {0xa7, 0x00},
 760:Src/ov2640.c  ****   {0xa7, 0x23},
 761:Src/ov2640.c  ****   {0xc0, 0xc8},
 762:Src/ov2640.c  ****   {0xc1, 0x96},
 763:Src/ov2640.c  ****   {0x8c, 0x00},
 764:Src/ov2640.c  ****   {0x86, 0x3d},
 765:Src/ov2640.c  ****   {0x50, 0x92},
 766:Src/ov2640.c  ****   {0x51, 0x90},
 767:Src/ov2640.c  ****   {0x52, 0x2c},
 768:Src/ov2640.c  ****   {0x53, 0x00},
 769:Src/ov2640.c  ****   {0x54, 0x00},
 770:Src/ov2640.c  ****   {0x55, 0x88},
 771:Src/ov2640.c  ****   {0x5a, 0x50},
ARM GAS  C:\Users\hungv\AppData\Local\Temp\cckPIcAY.s 			page 15


 772:Src/ov2640.c  ****   {0x5b, 0x3c},
 773:Src/ov2640.c  ****   {0x5c, 0x00},
 774:Src/ov2640.c  ****   {0xd3, 0x04},
 775:Src/ov2640.c  ****   {0x7f, 0x00},
 776:Src/ov2640.c  ****   {0xda, 0x00},
 777:Src/ov2640.c  ****   {0xe5, 0x1f},
 778:Src/ov2640.c  ****   {0xe1, 0x67},
 779:Src/ov2640.c  ****   {0xe0, 0x00},
 780:Src/ov2640.c  ****   {0xdd, 0x7f},
 781:Src/ov2640.c  ****   {0x05, 0x00},
 782:Src/ov2640.c  ****   {0xff, 0x00},
 783:Src/ov2640.c  ****   {0xe0, 0x04},
 784:Src/ov2640.c  ****   {0xc0, 0xc8},
 785:Src/ov2640.c  ****   {0xc1, 0x96},
 786:Src/ov2640.c  ****   {0x86, 0x3d},
 787:Src/ov2640.c  ****   {0x50, 0x92},
 788:Src/ov2640.c  ****   {0x51, 0x90},
 789:Src/ov2640.c  ****   {0x52, 0x2c},
 790:Src/ov2640.c  ****   {0x53, 0x00},
 791:Src/ov2640.c  ****   {0x54, 0x00},
 792:Src/ov2640.c  ****   {0x55, 0x88},
 793:Src/ov2640.c  ****   {0x57, 0x00},
 794:Src/ov2640.c  ****   {0x5a, 0x50},
 795:Src/ov2640.c  ****   {0x5b, 0x3C},
 796:Src/ov2640.c  ****   {0x5c, 0x00},
 797:Src/ov2640.c  ****   {0xd3, 0x08},
 798:Src/ov2640.c  ****   {0xe0, 0x00},
 799:Src/ov2640.c  ****   {0xFF, 0x00},
 800:Src/ov2640.c  ****   {0x05, 0x00},
 801:Src/ov2640.c  ****   {0xDA, 0x08},
 802:Src/ov2640.c  ****   {0xda, 0x09},
 803:Src/ov2640.c  ****   {0x98, 0x00},
 804:Src/ov2640.c  ****   {0x99, 0x00},
 805:Src/ov2640.c  ****   {0x00, 0x00},
 806:Src/ov2640.c  **** };
 807:Src/ov2640.c  **** 
 808:Src/ov2640.c  **** /* Initialization sequence for QQVGA resolution (160x120) */
 809:Src/ov2640.c  **** const char OV2640_QQVGA[][2]=
 810:Src/ov2640.c  **** {
 811:Src/ov2640.c  ****   {0xff, 0x00},
 812:Src/ov2640.c  ****   {0x2c, 0xff},
 813:Src/ov2640.c  ****   {0x2e, 0xdf},
 814:Src/ov2640.c  ****   {0xff, 0x01},
 815:Src/ov2640.c  ****   {0x3c, 0x32},
 816:Src/ov2640.c  ****   {0x11, 0x00},
 817:Src/ov2640.c  ****   {0x09, 0x02},
 818:Src/ov2640.c  ****   {0x04, 0xA8},
 819:Src/ov2640.c  ****   {0x13, 0xe5},
 820:Src/ov2640.c  ****   {0x14, 0x48},
 821:Src/ov2640.c  ****   {0x2c, 0x0c},
 822:Src/ov2640.c  ****   {0x33, 0x78},
 823:Src/ov2640.c  ****   {0x3a, 0x33},
 824:Src/ov2640.c  ****   {0x3b, 0xfB},
 825:Src/ov2640.c  ****   {0x3e, 0x00},
 826:Src/ov2640.c  ****   {0x43, 0x11},
 827:Src/ov2640.c  ****   {0x16, 0x10},
 828:Src/ov2640.c  ****   {0x4a, 0x81},
ARM GAS  C:\Users\hungv\AppData\Local\Temp\cckPIcAY.s 			page 16


 829:Src/ov2640.c  ****   {0x21, 0x99},
 830:Src/ov2640.c  ****   {0x24, 0x40},
 831:Src/ov2640.c  ****   {0x25, 0x38},
 832:Src/ov2640.c  ****   {0x26, 0x82},
 833:Src/ov2640.c  ****   {0x5c, 0x00},
 834:Src/ov2640.c  ****   {0x63, 0x00},
 835:Src/ov2640.c  ****   {0x46, 0x3f},
 836:Src/ov2640.c  ****   {0x0c, 0x3c},
 837:Src/ov2640.c  ****   {0x61, 0x70},
 838:Src/ov2640.c  ****   {0x62, 0x80},
 839:Src/ov2640.c  ****   {0x7c, 0x05},
 840:Src/ov2640.c  ****   {0x20, 0x80},
 841:Src/ov2640.c  ****   {0x28, 0x30},
 842:Src/ov2640.c  ****   {0x6c, 0x00},
 843:Src/ov2640.c  ****   {0x6d, 0x80},
 844:Src/ov2640.c  ****   {0x6e, 0x00},
 845:Src/ov2640.c  ****   {0x70, 0x02},
 846:Src/ov2640.c  ****   {0x71, 0x94},
 847:Src/ov2640.c  ****   {0x73, 0xc1},
 848:Src/ov2640.c  ****   {0x3d, 0x34},
 849:Src/ov2640.c  ****   {0x5a, 0x57},
 850:Src/ov2640.c  ****   {0x12, 0x00},
 851:Src/ov2640.c  ****   {0x11, 0x00},
 852:Src/ov2640.c  ****   {0x17, 0x11},
 853:Src/ov2640.c  ****   {0x18, 0x75},
 854:Src/ov2640.c  ****   {0x19, 0x01},
 855:Src/ov2640.c  ****   {0x1a, 0x97},
 856:Src/ov2640.c  ****   {0x32, 0x36},
 857:Src/ov2640.c  ****   {0x03, 0x0f},
 858:Src/ov2640.c  ****   {0x37, 0x40},
 859:Src/ov2640.c  ****   {0x4f, 0xbb},
 860:Src/ov2640.c  ****   {0x50, 0x9c},
 861:Src/ov2640.c  ****   {0x5a, 0x57},
 862:Src/ov2640.c  ****   {0x6d, 0x80},
 863:Src/ov2640.c  ****   {0x6d, 0x38},
 864:Src/ov2640.c  ****   {0x39, 0x02},
 865:Src/ov2640.c  ****   {0x35, 0x88},
 866:Src/ov2640.c  ****   {0x22, 0x0a},
 867:Src/ov2640.c  ****   {0x37, 0x40},
 868:Src/ov2640.c  ****   {0x23, 0x00},
 869:Src/ov2640.c  ****   {0x34, 0xa0},
 870:Src/ov2640.c  ****   {0x36, 0x1a},
 871:Src/ov2640.c  ****   {0x06, 0x02},
 872:Src/ov2640.c  ****   {0x07, 0xc0},
 873:Src/ov2640.c  ****   {0x0d, 0xb7},
 874:Src/ov2640.c  ****   {0x0e, 0x01},
 875:Src/ov2640.c  ****   {0x4c, 0x00},
 876:Src/ov2640.c  ****   {0xff, 0x00},
 877:Src/ov2640.c  ****   {0xe5, 0x7f},
 878:Src/ov2640.c  ****   {0xf9, 0xc0},
 879:Src/ov2640.c  ****   {0x41, 0x24},
 880:Src/ov2640.c  ****   {0xe0, 0x14},
 881:Src/ov2640.c  ****   {0x76, 0xff},
 882:Src/ov2640.c  ****   {0x33, 0xa0},
 883:Src/ov2640.c  ****   {0x42, 0x20},
 884:Src/ov2640.c  ****   {0x43, 0x18},
 885:Src/ov2640.c  ****   {0x4c, 0x00},
ARM GAS  C:\Users\hungv\AppData\Local\Temp\cckPIcAY.s 			page 17


 886:Src/ov2640.c  ****   {0x87, 0xd0},
 887:Src/ov2640.c  ****   {0x88, 0x3f},
 888:Src/ov2640.c  ****   {0xd7, 0x03},
 889:Src/ov2640.c  ****   {0xd9, 0x10},
 890:Src/ov2640.c  ****   {0xd3, 0x82},
 891:Src/ov2640.c  ****   {0xc8, 0x08},
 892:Src/ov2640.c  ****   {0xc9, 0x80},
 893:Src/ov2640.c  ****   {0x7d, 0x00},
 894:Src/ov2640.c  ****   {0x7c, 0x03},
 895:Src/ov2640.c  ****   {0x7d, 0x48},
 896:Src/ov2640.c  ****   {0x7c, 0x08},
 897:Src/ov2640.c  ****   {0x7d, 0x20},
 898:Src/ov2640.c  ****   {0x7d, 0x10},
 899:Src/ov2640.c  ****   {0x7d, 0x0e},
 900:Src/ov2640.c  ****   {0x90, 0x00},
 901:Src/ov2640.c  ****   {0x91, 0x0e},
 902:Src/ov2640.c  ****   {0x91, 0x1a},
 903:Src/ov2640.c  ****   {0x91, 0x31},
 904:Src/ov2640.c  ****   {0x91, 0x5a},
 905:Src/ov2640.c  ****   {0x91, 0x69},
 906:Src/ov2640.c  ****   {0x91, 0x75},
 907:Src/ov2640.c  ****   {0x91, 0x7e},
 908:Src/ov2640.c  ****   {0x91, 0x88},
 909:Src/ov2640.c  ****   {0x91, 0x8f},
 910:Src/ov2640.c  ****   {0x91, 0x96},
 911:Src/ov2640.c  ****   {0x91, 0xa3},
 912:Src/ov2640.c  ****   {0x91, 0xaf},
 913:Src/ov2640.c  ****   {0x91, 0xc4},
 914:Src/ov2640.c  ****   {0x91, 0xd7},
 915:Src/ov2640.c  ****   {0x91, 0xe8},
 916:Src/ov2640.c  ****   {0x91, 0x20},
 917:Src/ov2640.c  ****   {0x92, 0x00},
 918:Src/ov2640.c  ****   {0x93, 0x06},
 919:Src/ov2640.c  ****   {0x93, 0xe3},
 920:Src/ov2640.c  ****   {0x93, 0x02},
 921:Src/ov2640.c  ****   {0x93, 0x02},
 922:Src/ov2640.c  ****   {0x93, 0x00},
 923:Src/ov2640.c  ****   {0x93, 0x04},
 924:Src/ov2640.c  ****   {0x93, 0x00},
 925:Src/ov2640.c  ****   {0x93, 0x03},
 926:Src/ov2640.c  ****   {0x93, 0x00},
 927:Src/ov2640.c  ****   {0x93, 0x00},
 928:Src/ov2640.c  ****   {0x93, 0x00},
 929:Src/ov2640.c  ****   {0x93, 0x00},
 930:Src/ov2640.c  ****   {0x93, 0x00},
 931:Src/ov2640.c  ****   {0x93, 0x00},
 932:Src/ov2640.c  ****   {0x93, 0x00},
 933:Src/ov2640.c  ****   {0x96, 0x00},
 934:Src/ov2640.c  ****   {0x97, 0x08},
 935:Src/ov2640.c  ****   {0x97, 0x19},
 936:Src/ov2640.c  ****   {0x97, 0x02},
 937:Src/ov2640.c  ****   {0x97, 0x0c},
 938:Src/ov2640.c  ****   {0x97, 0x24},
 939:Src/ov2640.c  ****   {0x97, 0x30},
 940:Src/ov2640.c  ****   {0x97, 0x28},
 941:Src/ov2640.c  ****   {0x97, 0x26},
 942:Src/ov2640.c  ****   {0x97, 0x02},
ARM GAS  C:\Users\hungv\AppData\Local\Temp\cckPIcAY.s 			page 18


 943:Src/ov2640.c  ****   {0x97, 0x98},
 944:Src/ov2640.c  ****   {0x97, 0x80},
 945:Src/ov2640.c  ****   {0x97, 0x00},
 946:Src/ov2640.c  ****   {0x97, 0x00},
 947:Src/ov2640.c  ****   {0xc3, 0xef},
 948:Src/ov2640.c  ****   {0xff, 0x00},
 949:Src/ov2640.c  ****   {0xba, 0xdc},
 950:Src/ov2640.c  ****   {0xbb, 0x08},
 951:Src/ov2640.c  ****   {0xb6, 0x24},
 952:Src/ov2640.c  ****   {0xb8, 0x33},
 953:Src/ov2640.c  ****   {0xb7, 0x20},
 954:Src/ov2640.c  ****   {0xb9, 0x30},
 955:Src/ov2640.c  ****   {0xb3, 0xb4},
 956:Src/ov2640.c  ****   {0xb4, 0xca},
 957:Src/ov2640.c  ****   {0xb5, 0x43},
 958:Src/ov2640.c  ****   {0xb0, 0x5c},
 959:Src/ov2640.c  ****   {0xb1, 0x4f},
 960:Src/ov2640.c  ****   {0xb2, 0x06},
 961:Src/ov2640.c  ****   {0xc7, 0x00},
 962:Src/ov2640.c  ****   {0xc6, 0x51},
 963:Src/ov2640.c  ****   {0xc5, 0x11},
 964:Src/ov2640.c  ****   {0xc4, 0x9c},
 965:Src/ov2640.c  ****   {0xbf, 0x00},
 966:Src/ov2640.c  ****   {0xbc, 0x64},
 967:Src/ov2640.c  ****   {0xa6, 0x00},
 968:Src/ov2640.c  ****   {0xa7, 0x1e},
 969:Src/ov2640.c  ****   {0xa7, 0x6b},
 970:Src/ov2640.c  ****   {0xa7, 0x47},
 971:Src/ov2640.c  ****   {0xa7, 0x33},
 972:Src/ov2640.c  ****   {0xa7, 0x00},
 973:Src/ov2640.c  ****   {0xa7, 0x23},
 974:Src/ov2640.c  ****   {0xa7, 0x2e},
 975:Src/ov2640.c  ****   {0xa7, 0x85},
 976:Src/ov2640.c  ****   {0xa7, 0x42},
 977:Src/ov2640.c  ****   {0xa7, 0x33},
 978:Src/ov2640.c  ****   {0xa7, 0x00},
 979:Src/ov2640.c  ****   {0xa7, 0x23},
 980:Src/ov2640.c  ****   {0xa7, 0x1b},
 981:Src/ov2640.c  ****   {0xa7, 0x74},
 982:Src/ov2640.c  ****   {0xa7, 0x42},
 983:Src/ov2640.c  ****   {0xa7, 0x33},
 984:Src/ov2640.c  ****   {0xa7, 0x00},
 985:Src/ov2640.c  ****   {0xa7, 0x23},
 986:Src/ov2640.c  ****   {0xc0, 0xc8},
 987:Src/ov2640.c  ****   {0xc1, 0x96},
 988:Src/ov2640.c  ****   {0x8c, 0x00},
 989:Src/ov2640.c  ****   {0x86, 0x3d},
 990:Src/ov2640.c  ****   {0x50, 0x92},
 991:Src/ov2640.c  ****   {0x51, 0x90},
 992:Src/ov2640.c  ****   {0x52, 0x2c},
 993:Src/ov2640.c  ****   {0x53, 0x00},
 994:Src/ov2640.c  ****   {0x54, 0x00},
 995:Src/ov2640.c  ****   {0x55, 0x88},
 996:Src/ov2640.c  ****   {0x5a, 0x50},
 997:Src/ov2640.c  ****   {0x5b, 0x3c},
 998:Src/ov2640.c  ****   {0x5c, 0x00},
 999:Src/ov2640.c  ****   {0xd3, 0x04},
ARM GAS  C:\Users\hungv\AppData\Local\Temp\cckPIcAY.s 			page 19


1000:Src/ov2640.c  ****   {0x7f, 0x00},
1001:Src/ov2640.c  ****   {0xda, 0x00},
1002:Src/ov2640.c  ****   {0xe5, 0x1f},
1003:Src/ov2640.c  ****   {0xe1, 0x67},
1004:Src/ov2640.c  ****   {0xe0, 0x00},
1005:Src/ov2640.c  ****   {0xdd, 0x7f},
1006:Src/ov2640.c  ****   {0x05, 0x00},
1007:Src/ov2640.c  ****   {0xff, 0x00},
1008:Src/ov2640.c  ****   {0xe0, 0x04},
1009:Src/ov2640.c  ****   {0xc0, 0xc8},
1010:Src/ov2640.c  ****   {0xc1, 0x96},
1011:Src/ov2640.c  ****   {0x86, 0x3d},
1012:Src/ov2640.c  ****   {0x50, 0x92},
1013:Src/ov2640.c  ****   {0x51, 0x90},
1014:Src/ov2640.c  ****   {0x52, 0x2c},
1015:Src/ov2640.c  ****   {0x53, 0x00},
1016:Src/ov2640.c  ****   {0x54, 0x00},
1017:Src/ov2640.c  ****   {0x55, 0x88},
1018:Src/ov2640.c  ****   {0x57, 0x00},
1019:Src/ov2640.c  ****   {0x5a, 0x28}, 
1020:Src/ov2640.c  ****   {0x5b, 0x1E}, 
1021:Src/ov2640.c  ****   {0x5c, 0x00},
1022:Src/ov2640.c  ****   {0xd3, 0x08},
1023:Src/ov2640.c  ****   {0xe0, 0x00},
1024:Src/ov2640.c  ****   {0xFF, 0x00},
1025:Src/ov2640.c  ****   {0x05, 0x00},
1026:Src/ov2640.c  ****   {0xDA, 0x08},
1027:Src/ov2640.c  ****   {0xda, 0x09},
1028:Src/ov2640.c  ****   {0x98, 0x00},
1029:Src/ov2640.c  ****   {0x99, 0x00},
1030:Src/ov2640.c  ****   {0x00, 0x00},
1031:Src/ov2640.c  **** };
1032:Src/ov2640.c  **** 
1033:Src/ov2640.c  **** /**
1034:Src/ov2640.c  ****   * @}
1035:Src/ov2640.c  ****   */
1036:Src/ov2640.c  ****   
1037:Src/ov2640.c  **** /** @defgroup OV2640_Private_Functions
1038:Src/ov2640.c  ****   * @{
1039:Src/ov2640.c  ****   */ 
1040:Src/ov2640.c  ****   
1041:Src/ov2640.c  **** /**
1042:Src/ov2640.c  ****   * @brief  Initializes the OV2640 CAMERA component.
1043:Src/ov2640.c  ****   * @param  DeviceAddr: Device address on communication Bus.
1044:Src/ov2640.c  ****   * @param  resolution: Camera resolution
1045:Src/ov2640.c  ****   * @retval None
1046:Src/ov2640.c  ****   */
1047:Src/ov2640.c  **** void ov2640_Init(uint16_t DeviceAddr, uint32_t resolution)
1048:Src/ov2640.c  **** {
1049:Src/ov2640.c  ****   uint32_t index;
1050:Src/ov2640.c  ****   
1051:Src/ov2640.c  ****   /* Initialize I2C */
1052:Src/ov2640.c  ****   CAMERA_IO_Init();    
1053:Src/ov2640.c  ****   
1054:Src/ov2640.c  ****   /* Prepare the camera to be configured */
1055:Src/ov2640.c  ****   CAMERA_IO_Write(DeviceAddr, OV2640_DSP_RA_DLMT, 0x01);
1056:Src/ov2640.c  ****   CAMERA_IO_Write(DeviceAddr, OV2640_SENSOR_COM7, 0x80);
ARM GAS  C:\Users\hungv\AppData\Local\Temp\cckPIcAY.s 			page 20


1057:Src/ov2640.c  ****   CAMERA_Delay(200);
1058:Src/ov2640.c  ****   
1059:Src/ov2640.c  ****   /* Initialize OV2640 */
1060:Src/ov2640.c  ****   switch (resolution)
1061:Src/ov2640.c  ****   {
1062:Src/ov2640.c  ****   case CAMERA_R160x120:
1063:Src/ov2640.c  ****     {
1064:Src/ov2640.c  ****       for(index=0; index<(sizeof(OV2640_QQVGA)/2); index++)
1065:Src/ov2640.c  ****       {
1066:Src/ov2640.c  ****         CAMERA_IO_Write(DeviceAddr, OV2640_QQVGA[index][0], OV2640_QQVGA[index][1]);
1067:Src/ov2640.c  ****         CAMERA_Delay(1);
1068:Src/ov2640.c  ****       } 
1069:Src/ov2640.c  ****       break;
1070:Src/ov2640.c  ****     }    
1071:Src/ov2640.c  ****   case CAMERA_R320x240:
1072:Src/ov2640.c  ****     {
1073:Src/ov2640.c  ****       for(index=0; index<(sizeof(OV2640_QVGA)/2); index++)
1074:Src/ov2640.c  ****       {
1075:Src/ov2640.c  ****         CAMERA_IO_Write(DeviceAddr, OV2640_QVGA[index][0], OV2640_QVGA[index][1]);
1076:Src/ov2640.c  ****         CAMERA_Delay(1);
1077:Src/ov2640.c  ****       } 
1078:Src/ov2640.c  ****       break;
1079:Src/ov2640.c  ****     }
1080:Src/ov2640.c  ****   case CAMERA_R480x272:
1081:Src/ov2640.c  ****     {
1082:Src/ov2640.c  ****       for(index=0; index<(sizeof(OV2640_480x272)/2); index++)
1083:Src/ov2640.c  ****       {
1084:Src/ov2640.c  ****         CAMERA_IO_Write(DeviceAddr, OV2640_480x272[index][0], OV2640_480x272[index][1]);
1085:Src/ov2640.c  ****         CAMERA_Delay(2);
1086:Src/ov2640.c  ****       }
1087:Src/ov2640.c  ****       break;
1088:Src/ov2640.c  ****     }
1089:Src/ov2640.c  ****   case CAMERA_R640x480:
1090:Src/ov2640.c  ****     {
1091:Src/ov2640.c  ****       for(index=0; index<(sizeof(OV2640_VGA)/2); index++)
1092:Src/ov2640.c  ****       {
1093:Src/ov2640.c  ****         CAMERA_IO_Write(DeviceAddr, OV2640_VGA[index][0], OV2640_VGA[index][1]);
1094:Src/ov2640.c  ****         CAMERA_Delay(2);
1095:Src/ov2640.c  ****       }
1096:Src/ov2640.c  ****       break;
1097:Src/ov2640.c  ****     }    
1098:Src/ov2640.c  ****   default:
1099:Src/ov2640.c  ****     {
1100:Src/ov2640.c  ****       break;
1101:Src/ov2640.c  ****     }
1102:Src/ov2640.c  ****   }
1103:Src/ov2640.c  **** }
1104:Src/ov2640.c  **** 
1105:Src/ov2640.c  **** /**
1106:Src/ov2640.c  ****   * @brief  Configures the OV2640 camera feature.
1107:Src/ov2640.c  ****   * @param  DeviceAddr: Device address on communication Bus.
1108:Src/ov2640.c  ****   * @param  feature: Camera feature to be configured
1109:Src/ov2640.c  ****   * @param  value: Value to be configured
1110:Src/ov2640.c  ****   * @param  brightness_value: Brightness value to be configured
1111:Src/ov2640.c  ****   * @retval None
1112:Src/ov2640.c  ****   */
1113:Src/ov2640.c  **** void ov2640_Config(uint16_t DeviceAddr, uint32_t feature, uint32_t value, uint32_t brightness_value
ARM GAS  C:\Users\hungv\AppData\Local\Temp\cckPIcAY.s 			page 21


1114:Src/ov2640.c  **** {
1115:Src/ov2640.c  ****   uint8_t value1, value2;
1116:Src/ov2640.c  ****   uint32_t value_tmp;
1117:Src/ov2640.c  ****   uint32_t br_value;
1118:Src/ov2640.c  ****   
1119:Src/ov2640.c  ****   /* Convert the input value into ov2640 parameters */
1120:Src/ov2640.c  ****   value_tmp = ov2640_ConvertValue(feature, value); 
1121:Src/ov2640.c  ****   br_value = ov2640_ConvertValue(CAMERA_CONTRAST_BRIGHTNESS, brightness_value); 
1122:Src/ov2640.c  ****     
1123:Src/ov2640.c  ****   switch(feature)
1124:Src/ov2640.c  ****   {
1125:Src/ov2640.c  ****   case CAMERA_BLACK_WHITE:
1126:Src/ov2640.c  ****     {  
1127:Src/ov2640.c  ****       CAMERA_IO_Write(DeviceAddr, 0xff, 0x00);
1128:Src/ov2640.c  ****       CAMERA_IO_Write(DeviceAddr, 0x7c, 0x00);
1129:Src/ov2640.c  ****       CAMERA_IO_Write(DeviceAddr, 0x7d, value_tmp);
1130:Src/ov2640.c  ****       CAMERA_IO_Write(DeviceAddr, 0x7c, 0x05);
1131:Src/ov2640.c  ****       CAMERA_IO_Write(DeviceAddr, 0x7d, 0x80);
1132:Src/ov2640.c  ****       CAMERA_IO_Write(DeviceAddr, 0x7d, 0x80);
1133:Src/ov2640.c  ****       break;
1134:Src/ov2640.c  ****     }
1135:Src/ov2640.c  ****   case CAMERA_CONTRAST_BRIGHTNESS:
1136:Src/ov2640.c  ****     {
1137:Src/ov2640.c  ****       value1 = (uint8_t)(value_tmp);
1138:Src/ov2640.c  ****       value2 = (uint8_t)(value_tmp >> 8);
1139:Src/ov2640.c  ****       CAMERA_IO_Write(DeviceAddr, 0xff, 0x00);     
1140:Src/ov2640.c  ****       CAMERA_IO_Write(DeviceAddr, 0x7c, 0x00);
1141:Src/ov2640.c  ****       CAMERA_IO_Write(DeviceAddr, 0x7d, 0x04);
1142:Src/ov2640.c  ****       CAMERA_IO_Write(DeviceAddr, 0x7c, 0x07);
1143:Src/ov2640.c  ****       CAMERA_IO_Write(DeviceAddr, 0x7d, br_value);
1144:Src/ov2640.c  ****       CAMERA_IO_Write(DeviceAddr, 0x7d, value1);
1145:Src/ov2640.c  ****       CAMERA_IO_Write(DeviceAddr, 0x7d, value2);
1146:Src/ov2640.c  ****       CAMERA_IO_Write(DeviceAddr, 0x7d, 0x06);
1147:Src/ov2640.c  ****       break;
1148:Src/ov2640.c  ****     }
1149:Src/ov2640.c  ****   case CAMERA_COLOR_EFFECT:
1150:Src/ov2640.c  ****     {     
1151:Src/ov2640.c  ****       value1 = (uint8_t)(value_tmp);
1152:Src/ov2640.c  ****       value2 = (uint8_t)(value_tmp >> 8);
1153:Src/ov2640.c  ****       CAMERA_IO_Write(DeviceAddr, 0xff, 0x00);
1154:Src/ov2640.c  ****       CAMERA_IO_Write(DeviceAddr, 0x7c, 0x00);
1155:Src/ov2640.c  ****       CAMERA_IO_Write(DeviceAddr, 0x7d, 0x18);
1156:Src/ov2640.c  ****       CAMERA_IO_Write(DeviceAddr, 0x7c, 0x05);
1157:Src/ov2640.c  ****       CAMERA_IO_Write(DeviceAddr, 0x7d, value1);
1158:Src/ov2640.c  ****       CAMERA_IO_Write(DeviceAddr, 0x7d, value2);
1159:Src/ov2640.c  ****       break;
1160:Src/ov2640.c  ****     }     
1161:Src/ov2640.c  ****   default:
1162:Src/ov2640.c  ****     {
1163:Src/ov2640.c  ****       break;
1164:Src/ov2640.c  ****     }
1165:Src/ov2640.c  ****   }
1166:Src/ov2640.c  **** }
1167:Src/ov2640.c  **** 
1168:Src/ov2640.c  **** /**
1169:Src/ov2640.c  ****   * @brief  Read the OV2640 Camera identity.
1170:Src/ov2640.c  ****   * @param  DeviceAddr: Device address on communication Bus.
ARM GAS  C:\Users\hungv\AppData\Local\Temp\cckPIcAY.s 			page 22


1171:Src/ov2640.c  ****   * @retval the OV2640 ID
1172:Src/ov2640.c  ****   */
1173:Src/ov2640.c  **** uint16_t ov2640_ReadID(uint16_t DeviceAddr)
1174:Src/ov2640.c  **** {
1175:Src/ov2640.c  ****   /* Initialize I2C */
1176:Src/ov2640.c  ****   CAMERA_IO_Init();
1177:Src/ov2640.c  ****   
1178:Src/ov2640.c  ****   /* Prepare the sensor to read the Camera ID */
1179:Src/ov2640.c  ****   CAMERA_IO_Write(DeviceAddr, OV2640_DSP_RA_DLMT, 0x01);
1180:Src/ov2640.c  ****   
1181:Src/ov2640.c  ****   /* Get the camera ID */
1182:Src/ov2640.c  ****   return (CAMERA_IO_Read(DeviceAddr, OV2640_SENSOR_PIDH));
1183:Src/ov2640.c  **** }
1184:Src/ov2640.c  **** 
1185:Src/ov2640.c  **** /******************************************************************************
1186:Src/ov2640.c  ****                             Static Functions
1187:Src/ov2640.c  **** *******************************************************************************/
1188:Src/ov2640.c  **** /**
1189:Src/ov2640.c  ****   * @brief  Convert input values into ov2640 parameters.
1190:Src/ov2640.c  ****   * @param  feature: Camera feature to be configured
1191:Src/ov2640.c  ****   * @param  value: Value to be configured
1192:Src/ov2640.c  ****   * @retval The converted value
1193:Src/ov2640.c  ****   */
1194:Src/ov2640.c  **** static uint32_t ov2640_ConvertValue(uint32_t feature, uint32_t value)
1195:Src/ov2640.c  **** {
  29              		.loc 1 1195 1 view -0
  30              		.cfi_startproc
  31              		@ args = 0, pretend = 0, frame = 0
  32              		@ frame_needed = 0, uses_anonymous_args = 0
  33              		@ link register save eliminated.
1196:Src/ov2640.c  ****   uint32_t ret = 0;
  34              		.loc 1 1196 3 view .LVU1
1197:Src/ov2640.c  ****   
1198:Src/ov2640.c  ****   switch(feature)
  35              		.loc 1 1198 3 view .LVU2
  36 0000 0128     		cmp	r0, #1
  37 0002 04D0     		beq	.L2
  38 0004 88B1     		cbz	r0, .L3
  39 0006 0328     		cmp	r0, #3
  40 0008 30D0     		beq	.L4
1199:Src/ov2640.c  ****   {
1200:Src/ov2640.c  ****   case CAMERA_BLACK_WHITE:
1201:Src/ov2640.c  ****     {
1202:Src/ov2640.c  ****       switch(value)
1203:Src/ov2640.c  ****       {
1204:Src/ov2640.c  ****       case CAMERA_BLACK_WHITE_BW:
1205:Src/ov2640.c  ****         {
1206:Src/ov2640.c  ****           ret =  OV2640_BLACK_WHITE_BW;
1207:Src/ov2640.c  ****           break;
1208:Src/ov2640.c  ****         }
1209:Src/ov2640.c  ****       case CAMERA_BLACK_WHITE_NEGATIVE:
1210:Src/ov2640.c  ****         {
1211:Src/ov2640.c  ****           ret =  OV2640_BLACK_WHITE_NEGATIVE;
1212:Src/ov2640.c  ****           break;
1213:Src/ov2640.c  ****         }
1214:Src/ov2640.c  ****       case CAMERA_BLACK_WHITE_BW_NEGATIVE:
1215:Src/ov2640.c  ****         {
ARM GAS  C:\Users\hungv\AppData\Local\Temp\cckPIcAY.s 			page 23


1216:Src/ov2640.c  ****           ret =  OV2640_BLACK_WHITE_BW_NEGATIVE;
1217:Src/ov2640.c  ****           break;
1218:Src/ov2640.c  ****         }
1219:Src/ov2640.c  ****       case CAMERA_BLACK_WHITE_NORMAL:
1220:Src/ov2640.c  ****         {
1221:Src/ov2640.c  ****           ret =  OV2640_BLACK_WHITE_NORMAL;
1222:Src/ov2640.c  ****           break;
1223:Src/ov2640.c  ****         }
1224:Src/ov2640.c  ****       default:
1225:Src/ov2640.c  ****         {
1226:Src/ov2640.c  ****           ret =  OV2640_BLACK_WHITE_NORMAL;
1227:Src/ov2640.c  ****           break;
1228:Src/ov2640.c  ****         }
1229:Src/ov2640.c  ****       }
1230:Src/ov2640.c  ****       break;
1231:Src/ov2640.c  ****     }
1232:Src/ov2640.c  ****   case CAMERA_CONTRAST_BRIGHTNESS:
1233:Src/ov2640.c  ****     {
1234:Src/ov2640.c  ****       switch(value)
1235:Src/ov2640.c  ****       {
1236:Src/ov2640.c  ****       case CAMERA_BRIGHTNESS_LEVEL0:
1237:Src/ov2640.c  ****         {
1238:Src/ov2640.c  ****           ret =  OV2640_BRIGHTNESS_LEVEL0;
1239:Src/ov2640.c  ****           break;
1240:Src/ov2640.c  ****         }
1241:Src/ov2640.c  ****       case CAMERA_BRIGHTNESS_LEVEL1:
1242:Src/ov2640.c  ****         {
1243:Src/ov2640.c  ****           ret =  OV2640_BRIGHTNESS_LEVEL1;
1244:Src/ov2640.c  ****           break;
1245:Src/ov2640.c  ****         }
1246:Src/ov2640.c  ****       case CAMERA_BRIGHTNESS_LEVEL2:
1247:Src/ov2640.c  ****         {
1248:Src/ov2640.c  ****           ret =  OV2640_BRIGHTNESS_LEVEL2;
1249:Src/ov2640.c  ****           break;
1250:Src/ov2640.c  ****         }
1251:Src/ov2640.c  ****       case CAMERA_BRIGHTNESS_LEVEL3:
1252:Src/ov2640.c  ****         {
1253:Src/ov2640.c  ****           ret =  OV2640_BRIGHTNESS_LEVEL3;
1254:Src/ov2640.c  ****           break;
1255:Src/ov2640.c  ****         }
1256:Src/ov2640.c  ****       case CAMERA_BRIGHTNESS_LEVEL4:
1257:Src/ov2640.c  ****         {
1258:Src/ov2640.c  ****           ret =  OV2640_BRIGHTNESS_LEVEL4;
1259:Src/ov2640.c  ****           break;
1260:Src/ov2640.c  ****         }        
1261:Src/ov2640.c  ****       case CAMERA_CONTRAST_LEVEL0:
1262:Src/ov2640.c  ****         {
1263:Src/ov2640.c  ****           ret =  OV2640_CONTRAST_LEVEL0;
1264:Src/ov2640.c  ****           break;
1265:Src/ov2640.c  ****         }
1266:Src/ov2640.c  ****       case CAMERA_CONTRAST_LEVEL1:
1267:Src/ov2640.c  ****         {
1268:Src/ov2640.c  ****           ret =  OV2640_CONTRAST_LEVEL1;
1269:Src/ov2640.c  ****           break;
1270:Src/ov2640.c  ****         }
1271:Src/ov2640.c  ****       case CAMERA_CONTRAST_LEVEL2:
1272:Src/ov2640.c  ****         {
ARM GAS  C:\Users\hungv\AppData\Local\Temp\cckPIcAY.s 			page 24


1273:Src/ov2640.c  ****           ret =  OV2640_CONTRAST_LEVEL2;
1274:Src/ov2640.c  ****           break;
1275:Src/ov2640.c  ****         }
1276:Src/ov2640.c  ****       case CAMERA_CONTRAST_LEVEL3:
1277:Src/ov2640.c  ****         {
1278:Src/ov2640.c  ****           ret =  OV2640_CONTRAST_LEVEL3;
1279:Src/ov2640.c  ****           break;
1280:Src/ov2640.c  ****         }
1281:Src/ov2640.c  ****       case CAMERA_CONTRAST_LEVEL4:
1282:Src/ov2640.c  ****         {
1283:Src/ov2640.c  ****           ret =  OV2640_CONTRAST_LEVEL4;
1284:Src/ov2640.c  ****           break;
1285:Src/ov2640.c  ****         }
1286:Src/ov2640.c  ****       default:
1287:Src/ov2640.c  ****         {
1288:Src/ov2640.c  ****           ret =  OV2640_CONTRAST_LEVEL0;
1289:Src/ov2640.c  ****           break;
1290:Src/ov2640.c  ****         }
1291:Src/ov2640.c  ****       }
1292:Src/ov2640.c  ****       break;
1293:Src/ov2640.c  ****     }
1294:Src/ov2640.c  ****   case CAMERA_COLOR_EFFECT:
1295:Src/ov2640.c  ****     {
1296:Src/ov2640.c  ****       switch(value)
1297:Src/ov2640.c  ****       {
1298:Src/ov2640.c  ****       case CAMERA_COLOR_EFFECT_ANTIQUE:
1299:Src/ov2640.c  ****         {
1300:Src/ov2640.c  ****           ret =  OV2640_COLOR_EFFECT_ANTIQUE;
1301:Src/ov2640.c  ****           break;
1302:Src/ov2640.c  ****         }
1303:Src/ov2640.c  ****       case CAMERA_COLOR_EFFECT_BLUE:
1304:Src/ov2640.c  ****         {
1305:Src/ov2640.c  ****           ret =  OV2640_COLOR_EFFECT_BLUE;
1306:Src/ov2640.c  ****           break;
1307:Src/ov2640.c  ****         }
1308:Src/ov2640.c  ****       case CAMERA_COLOR_EFFECT_GREEN:
1309:Src/ov2640.c  ****         {
1310:Src/ov2640.c  ****           ret =  OV2640_COLOR_EFFECT_GREEN;
1311:Src/ov2640.c  ****           break;
1312:Src/ov2640.c  ****         }
1313:Src/ov2640.c  ****       case CAMERA_COLOR_EFFECT_RED:
1314:Src/ov2640.c  ****         {
1315:Src/ov2640.c  ****           ret =  OV2640_COLOR_EFFECT_RED;
1316:Src/ov2640.c  ****           break;
1317:Src/ov2640.c  ****         }
1318:Src/ov2640.c  ****       default:
1319:Src/ov2640.c  ****         {
1320:Src/ov2640.c  ****           ret =  OV2640_COLOR_EFFECT_RED;
1321:Src/ov2640.c  ****           break;
1322:Src/ov2640.c  ****         }
1323:Src/ov2640.c  ****       }
1324:Src/ov2640.c  ****       break;
1325:Src/ov2640.c  ****     default:
1326:Src/ov2640.c  ****       {
1327:Src/ov2640.c  ****         ret = 0;
  41              		.loc 1 1327 13 is_stmt 0 view .LVU3
  42 000a 0020     		movs	r0, #0
ARM GAS  C:\Users\hungv\AppData\Local\Temp\cckPIcAY.s 			page 25


  43              	.LVL1:
  44              		.loc 1 1327 13 view .LVU4
  45 000c 7047     		bx	lr
  46              	.LVL2:
  47              	.L2:
1202:Src/ov2640.c  ****       {
  48              		.loc 1 1202 7 is_stmt 1 view .LVU5
  49 000e 0329     		cmp	r1, #3
  50 0010 09D8     		bhi	.L6
  51 0012 DFE801F0 		tbb	[pc, r1]
  52              	.L8:
  53 0016 02       		.byte	(.L10-.L8)/2
  54 0017 3E       		.byte	(.L27-.L8)/2
  55 0018 04       		.byte	(.L9-.L8)/2
  56 0019 06       		.byte	(.L7-.L8)/2
  57              		.p2align 1
  58              	.L10:
1206:Src/ov2640.c  ****           break;
  59              		.loc 1 1206 15 is_stmt 0 view .LVU6
  60 001a 1820     		movs	r0, #24
  61              	.LVL3:
1206:Src/ov2640.c  ****           break;
  62              		.loc 1 1206 15 view .LVU7
  63 001c 7047     		bx	lr
  64              	.LVL4:
  65              	.L9:
1216:Src/ov2640.c  ****           break;
  66              		.loc 1 1216 11 is_stmt 1 view .LVU8
1217:Src/ov2640.c  ****         }
  67              		.loc 1 1217 11 view .LVU9
1216:Src/ov2640.c  ****           break;
  68              		.loc 1 1216 15 is_stmt 0 view .LVU10
  69 001e 5820     		movs	r0, #88
  70              	.LVL5:
1217:Src/ov2640.c  ****         }
  71              		.loc 1 1217 11 view .LVU11
  72 0020 7047     		bx	lr
  73              	.LVL6:
  74              	.L7:
1221:Src/ov2640.c  ****           break;
  75              		.loc 1 1221 11 is_stmt 1 view .LVU12
1222:Src/ov2640.c  ****         }
  76              		.loc 1 1222 11 view .LVU13
1221:Src/ov2640.c  ****           break;
  77              		.loc 1 1221 15 is_stmt 0 view .LVU14
  78 0022 0020     		movs	r0, #0
  79              	.LVL7:
1222:Src/ov2640.c  ****         }
  80              		.loc 1 1222 11 view .LVU15
  81 0024 7047     		bx	lr
  82              	.LVL8:
  83              	.L6:
1226:Src/ov2640.c  ****           break;
  84              		.loc 1 1226 11 is_stmt 1 view .LVU16
1227:Src/ov2640.c  ****         }
  85              		.loc 1 1227 11 view .LVU17
1226:Src/ov2640.c  ****           break;
ARM GAS  C:\Users\hungv\AppData\Local\Temp\cckPIcAY.s 			page 26


  86              		.loc 1 1226 15 is_stmt 0 view .LVU18
  87 0026 0020     		movs	r0, #0
  88              	.LVL9:
1227:Src/ov2640.c  ****         }
  89              		.loc 1 1227 11 view .LVU19
  90 0028 7047     		bx	lr
  91              	.LVL10:
  92              	.L3:
1234:Src/ov2640.c  ****       {
  93              		.loc 1 1234 7 is_stmt 1 view .LVU20
  94 002a 0929     		cmp	r1, #9
  95 002c 1BD8     		bhi	.L11
  96 002e DFE801F0 		tbb	[pc, r1]
  97              	.L13:
  98 0032 05       		.byte	(.L21-.L13)/2
  99 0033 32       		.byte	(.L28-.L13)/2
 100 0034 07       		.byte	(.L20-.L13)/2
 101 0035 09       		.byte	(.L19-.L13)/2
 102 0036 36       		.byte	(.L1-.L13)/2
 103 0037 0B       		.byte	(.L17-.L13)/2
 104 0038 0E       		.byte	(.L16-.L13)/2
 105 0039 11       		.byte	(.L15-.L13)/2
 106 003a 14       		.byte	(.L14-.L13)/2
 107 003b 17       		.byte	(.L12-.L13)/2
 108              		.p2align 1
 109              	.L21:
1238:Src/ov2640.c  ****           break;
 110              		.loc 1 1238 15 is_stmt 0 view .LVU21
 111 003c 4020     		movs	r0, #64
 112              	.LVL11:
1238:Src/ov2640.c  ****           break;
 113              		.loc 1 1238 15 view .LVU22
 114 003e 7047     		bx	lr
 115              	.LVL12:
 116              	.L20:
1248:Src/ov2640.c  ****           break;
 117              		.loc 1 1248 11 is_stmt 1 view .LVU23
1249:Src/ov2640.c  ****         }
 118              		.loc 1 1249 11 view .LVU24
1248:Src/ov2640.c  ****           break;
 119              		.loc 1 1248 15 is_stmt 0 view .LVU25
 120 0040 2020     		movs	r0, #32
 121              	.LVL13:
1249:Src/ov2640.c  ****         }
 122              		.loc 1 1249 11 view .LVU26
 123 0042 7047     		bx	lr
 124              	.LVL14:
 125              	.L19:
1253:Src/ov2640.c  ****           break;
 126              		.loc 1 1253 11 is_stmt 1 view .LVU27
1254:Src/ov2640.c  ****         }
 127              		.loc 1 1254 11 view .LVU28
1253:Src/ov2640.c  ****           break;
 128              		.loc 1 1253 15 is_stmt 0 view .LVU29
 129 0044 1020     		movs	r0, #16
 130              	.LVL15:
1254:Src/ov2640.c  ****         }
ARM GAS  C:\Users\hungv\AppData\Local\Temp\cckPIcAY.s 			page 27


 131              		.loc 1 1254 11 view .LVU30
 132 0046 7047     		bx	lr
 133              	.LVL16:
 134              	.L17:
1263:Src/ov2640.c  ****           break;
 135              		.loc 1 1263 11 is_stmt 1 view .LVU31
1264:Src/ov2640.c  ****         }
 136              		.loc 1 1264 11 view .LVU32
1263:Src/ov2640.c  ****           break;
 137              		.loc 1 1263 15 is_stmt 0 view .LVU33
 138 0048 43F21840 		movw	r0, #13336
 139              	.LVL17:
1264:Src/ov2640.c  ****         }
 140              		.loc 1 1264 11 view .LVU34
 141 004c 7047     		bx	lr
 142              	.LVL18:
 143              	.L16:
1268:Src/ov2640.c  ****           break;
 144              		.loc 1 1268 11 is_stmt 1 view .LVU35
1269:Src/ov2640.c  ****         }
 145              		.loc 1 1269 11 view .LVU36
1268:Src/ov2640.c  ****           break;
 146              		.loc 1 1268 15 is_stmt 0 view .LVU37
 147 004e 42F61C20 		movw	r0, #10780
 148              	.LVL19:
1269:Src/ov2640.c  ****         }
 149              		.loc 1 1269 11 view .LVU38
 150 0052 7047     		bx	lr
 151              	.LVL20:
 152              	.L15:
1273:Src/ov2640.c  ****           break;
 153              		.loc 1 1273 11 is_stmt 1 view .LVU39
1274:Src/ov2640.c  ****         }
 154              		.loc 1 1274 11 view .LVU40
1273:Src/ov2640.c  ****           break;
 155              		.loc 1 1273 15 is_stmt 0 view .LVU41
 156 0054 42F22000 		movw	r0, #8224
 157              	.LVL21:
1274:Src/ov2640.c  ****         }
 158              		.loc 1 1274 11 view .LVU42
 159 0058 7047     		bx	lr
 160              	.LVL22:
 161              	.L14:
1278:Src/ov2640.c  ****           break;
 162              		.loc 1 1278 11 is_stmt 1 view .LVU43
1279:Src/ov2640.c  ****         }
 163              		.loc 1 1279 11 view .LVU44
1278:Src/ov2640.c  ****           break;
 164              		.loc 1 1278 15 is_stmt 0 view .LVU45
 165 005a 41F22460 		movw	r0, #5668
 166              	.LVL23:
1279:Src/ov2640.c  ****         }
 167              		.loc 1 1279 11 view .LVU46
 168 005e 7047     		bx	lr
 169              	.LVL24:
 170              	.L12:
1283:Src/ov2640.c  ****           break;
ARM GAS  C:\Users\hungv\AppData\Local\Temp\cckPIcAY.s 			page 28


 171              		.loc 1 1283 11 is_stmt 1 view .LVU47
1284:Src/ov2640.c  ****         }
 172              		.loc 1 1284 11 view .LVU48
1283:Src/ov2640.c  ****           break;
 173              		.loc 1 1283 15 is_stmt 0 view .LVU49
 174 0060 40F62840 		movw	r0, #3112
 175              	.LVL25:
1284:Src/ov2640.c  ****         }
 176              		.loc 1 1284 11 view .LVU50
 177 0064 7047     		bx	lr
 178              	.LVL26:
 179              	.L11:
1288:Src/ov2640.c  ****           break;
 180              		.loc 1 1288 11 is_stmt 1 view .LVU51
1289:Src/ov2640.c  ****         }
 181              		.loc 1 1289 11 view .LVU52
1288:Src/ov2640.c  ****           break;
 182              		.loc 1 1288 15 is_stmt 0 view .LVU53
 183 0066 43F21840 		movw	r0, #13336
 184              	.LVL27:
1289:Src/ov2640.c  ****         }
 185              		.loc 1 1289 11 view .LVU54
 186 006a 7047     		bx	lr
 187              	.LVL28:
 188              	.L4:
1296:Src/ov2640.c  ****       {
 189              		.loc 1 1296 7 is_stmt 1 view .LVU55
 190 006c 0139     		subs	r1, r1, #1
 191              	.LVL29:
1296:Src/ov2640.c  ****       {
 192              		.loc 1 1296 7 is_stmt 0 view .LVU56
 193 006e 0329     		cmp	r1, #3
 194 0070 0CD8     		bhi	.L22
 195 0072 DFE801F0 		tbb	[pc, r1]
 196              	.L24:
 197 0076 12       		.byte	(.L29-.L24)/2
 198 0077 05       		.byte	(.L26-.L24)/2
 199 0078 08       		.byte	(.L25-.L24)/2
 200 0079 02       		.byte	(.L23-.L24)/2
 201              		.p2align 1
 202              	.L23:
1300:Src/ov2640.c  ****           break;
 203              		.loc 1 1300 15 view .LVU57
 204 007a 4AF24060 		movw	r0, #42560
 205              	.LVL30:
1300:Src/ov2640.c  ****           break;
 206              		.loc 1 1300 15 view .LVU58
 207 007e 7047     		bx	lr
 208              	.LVL31:
 209              	.L26:
1310:Src/ov2640.c  ****           break;
 210              		.loc 1 1310 11 is_stmt 1 view .LVU59
1311:Src/ov2640.c  ****         }
 211              		.loc 1 1311 11 view .LVU60
1310:Src/ov2640.c  ****           break;
 212              		.loc 1 1310 15 is_stmt 0 view .LVU61
 213 0080 44F24000 		movw	r0, #16448
ARM GAS  C:\Users\hungv\AppData\Local\Temp\cckPIcAY.s 			page 29


 214              	.LVL32:
1311:Src/ov2640.c  ****         }
 215              		.loc 1 1311 11 view .LVU62
 216 0084 7047     		bx	lr
 217              	.LVL33:
 218              	.L25:
1315:Src/ov2640.c  ****           break;
 219              		.loc 1 1315 11 is_stmt 1 view .LVU63
1316:Src/ov2640.c  ****         }
 220              		.loc 1 1316 11 view .LVU64
1315:Src/ov2640.c  ****           break;
 221              		.loc 1 1315 15 is_stmt 0 view .LVU65
 222 0086 4CF24000 		movw	r0, #49216
 223              	.LVL34:
1316:Src/ov2640.c  ****         }
 224              		.loc 1 1316 11 view .LVU66
 225 008a 7047     		bx	lr
 226              	.LVL35:
 227              	.L22:
1320:Src/ov2640.c  ****           break;
 228              		.loc 1 1320 11 is_stmt 1 view .LVU67
1321:Src/ov2640.c  ****         }
 229              		.loc 1 1321 11 view .LVU68
1320:Src/ov2640.c  ****           break;
 230              		.loc 1 1320 15 is_stmt 0 view .LVU69
 231 008c 4CF24000 		movw	r0, #49216
 232              	.LVL36:
1321:Src/ov2640.c  ****         }
 233              		.loc 1 1321 11 view .LVU70
 234 0090 7047     		bx	lr
 235              	.LVL37:
 236              	.L27:
1211:Src/ov2640.c  ****           break;
 237              		.loc 1 1211 15 view .LVU71
 238 0092 4020     		movs	r0, #64
 239              	.LVL38:
1211:Src/ov2640.c  ****           break;
 240              		.loc 1 1211 15 view .LVU72
 241 0094 7047     		bx	lr
 242              	.LVL39:
 243              	.L28:
1243:Src/ov2640.c  ****           break;
 244              		.loc 1 1243 15 view .LVU73
 245 0096 3020     		movs	r0, #48
 246              	.LVL40:
1243:Src/ov2640.c  ****           break;
 247              		.loc 1 1243 15 view .LVU74
 248 0098 7047     		bx	lr
 249              	.LVL41:
 250              	.L29:
1305:Src/ov2640.c  ****           break;
 251              		.loc 1 1305 15 view .LVU75
 252 009a 44F2A000 		movw	r0, #16544
 253              	.LVL42:
1328:Src/ov2640.c  ****         break;
1329:Src/ov2640.c  ****       }    
1330:Src/ov2640.c  ****     }
ARM GAS  C:\Users\hungv\AppData\Local\Temp\cckPIcAY.s 			page 30


1331:Src/ov2640.c  ****   }
1332:Src/ov2640.c  ****   
1333:Src/ov2640.c  ****   return ret;
 254              		.loc 1 1333 3 is_stmt 1 view .LVU76
 255              	.L1:
1334:Src/ov2640.c  **** }
 256              		.loc 1 1334 1 is_stmt 0 view .LVU77
 257 009e 7047     		bx	lr
 258              		.cfi_endproc
 259              	.LFE133:
 261              		.section	.text.CAMERA_IO_Init,"ax",%progbits
 262              		.align	1
 263              		.global	CAMERA_IO_Init
 264              		.syntax unified
 265              		.thumb
 266              		.thumb_func
 267              		.fpu fpv4-sp-d16
 269              	CAMERA_IO_Init:
 270              	.LFB134:
1335:Src/ov2640.c  **** 
1336:Src/ov2640.c  **** /**
1337:Src/ov2640.c  ****   * @brief  Initializes Camera low level.
1338:Src/ov2640.c  ****   */
1339:Src/ov2640.c  **** void CAMERA_IO_Init(void)
1340:Src/ov2640.c  **** {
 271              		.loc 1 1340 1 is_stmt 1 view -0
 272              		.cfi_startproc
 273              		@ args = 0, pretend = 0, frame = 0
 274              		@ frame_needed = 0, uses_anonymous_args = 0
 275 0000 08B5     		push	{r3, lr}
 276              	.LCFI0:
 277              		.cfi_def_cfa_offset 8
 278              		.cfi_offset 3, -8
 279              		.cfi_offset 14, -4
1341:Src/ov2640.c  **** 	I2Cx_Init();
 280              		.loc 1 1341 2 view .LVU79
 281 0002 FFF7FEFF 		bl	I2Cx_Init
 282              	.LVL43:
1342:Src/ov2640.c  **** }
 283              		.loc 1 1342 1 is_stmt 0 view .LVU80
 284 0006 08BD     		pop	{r3, pc}
 285              		.cfi_endproc
 286              	.LFE134:
 288              		.section	.text.CAMERA_IO_Write,"ax",%progbits
 289              		.align	1
 290              		.global	CAMERA_IO_Write
 291              		.syntax unified
 292              		.thumb
 293              		.thumb_func
 294              		.fpu fpv4-sp-d16
 296              	CAMERA_IO_Write:
 297              	.LVL44:
 298              	.LFB135:
1343:Src/ov2640.c  **** 
1344:Src/ov2640.c  **** /**
1345:Src/ov2640.c  ****   * @brief  Camera writes single data.
1346:Src/ov2640.c  ****   * @param  Addr: I2C address
ARM GAS  C:\Users\hungv\AppData\Local\Temp\cckPIcAY.s 			page 31


1347:Src/ov2640.c  ****   * @param  Reg: Register address
1348:Src/ov2640.c  ****   * @param  Value: Data to be written
1349:Src/ov2640.c  ****   */
1350:Src/ov2640.c  **** void CAMERA_IO_Write(uint8_t Addr, uint8_t Reg, uint8_t Value)
1351:Src/ov2640.c  **** {
 299              		.loc 1 1351 1 is_stmt 1 view -0
 300              		.cfi_startproc
 301              		@ args = 0, pretend = 0, frame = 0
 302              		@ frame_needed = 0, uses_anonymous_args = 0
 303              		.loc 1 1351 1 is_stmt 0 view .LVU82
 304 0000 08B5     		push	{r3, lr}
 305              	.LCFI1:
 306              		.cfi_def_cfa_offset 8
 307              		.cfi_offset 3, -8
 308              		.cfi_offset 14, -4
1352:Src/ov2640.c  ****   I2Cx_Write(Addr, Reg, Value);
 309              		.loc 1 1352 3 is_stmt 1 view .LVU83
 310 0002 FFF7FEFF 		bl	I2Cx_Write
 311              	.LVL45:
1353:Src/ov2640.c  **** }
 312              		.loc 1 1353 1 is_stmt 0 view .LVU84
 313 0006 08BD     		pop	{r3, pc}
 314              		.cfi_endproc
 315              	.LFE135:
 317              		.section	.text.ov2640_Config,"ax",%progbits
 318              		.align	1
 319              		.global	ov2640_Config
 320              		.syntax unified
 321              		.thumb
 322              		.thumb_func
 323              		.fpu fpv4-sp-d16
 325              	ov2640_Config:
 326              	.LVL46:
 327              	.LFB131:
1114:Src/ov2640.c  ****   uint8_t value1, value2;
 328              		.loc 1 1114 1 is_stmt 1 view -0
 329              		.cfi_startproc
 330              		@ args = 0, pretend = 0, frame = 0
 331              		@ frame_needed = 0, uses_anonymous_args = 0
1114:Src/ov2640.c  ****   uint8_t value1, value2;
 332              		.loc 1 1114 1 is_stmt 0 view .LVU86
 333 0000 2DE9F041 		push	{r4, r5, r6, r7, r8, lr}
 334              	.LCFI2:
 335              		.cfi_def_cfa_offset 24
 336              		.cfi_offset 4, -24
 337              		.cfi_offset 5, -20
 338              		.cfi_offset 6, -16
 339              		.cfi_offset 7, -12
 340              		.cfi_offset 8, -8
 341              		.cfi_offset 14, -4
 342 0004 0646     		mov	r6, r0
 343 0006 0C46     		mov	r4, r1
 344 0008 1F46     		mov	r7, r3
1115:Src/ov2640.c  ****   uint32_t value_tmp;
 345              		.loc 1 1115 3 is_stmt 1 view .LVU87
1116:Src/ov2640.c  ****   uint32_t br_value;
 346              		.loc 1 1116 3 view .LVU88
ARM GAS  C:\Users\hungv\AppData\Local\Temp\cckPIcAY.s 			page 32


1117:Src/ov2640.c  ****   
 347              		.loc 1 1117 3 view .LVU89
1120:Src/ov2640.c  ****   br_value = ov2640_ConvertValue(CAMERA_CONTRAST_BRIGHTNESS, brightness_value); 
 348              		.loc 1 1120 3 view .LVU90
1120:Src/ov2640.c  ****   br_value = ov2640_ConvertValue(CAMERA_CONTRAST_BRIGHTNESS, brightness_value); 
 349              		.loc 1 1120 15 is_stmt 0 view .LVU91
 350 000a 1146     		mov	r1, r2
 351              	.LVL47:
1120:Src/ov2640.c  ****   br_value = ov2640_ConvertValue(CAMERA_CONTRAST_BRIGHTNESS, brightness_value); 
 352              		.loc 1 1120 15 view .LVU92
 353 000c 2046     		mov	r0, r4
 354              	.LVL48:
1120:Src/ov2640.c  ****   br_value = ov2640_ConvertValue(CAMERA_CONTRAST_BRIGHTNESS, brightness_value); 
 355              		.loc 1 1120 15 view .LVU93
 356 000e FFF7FEFF 		bl	ov2640_ConvertValue
 357              	.LVL49:
1120:Src/ov2640.c  ****   br_value = ov2640_ConvertValue(CAMERA_CONTRAST_BRIGHTNESS, brightness_value); 
 358              		.loc 1 1120 15 view .LVU94
 359 0012 0546     		mov	r5, r0
 360              	.LVL50:
1121:Src/ov2640.c  ****     
 361              		.loc 1 1121 3 is_stmt 1 view .LVU95
1121:Src/ov2640.c  ****     
 362              		.loc 1 1121 14 is_stmt 0 view .LVU96
 363 0014 3946     		mov	r1, r7
 364 0016 0020     		movs	r0, #0
 365              	.LVL51:
1121:Src/ov2640.c  ****     
 366              		.loc 1 1121 14 view .LVU97
 367 0018 FFF7FEFF 		bl	ov2640_ConvertValue
 368              	.LVL52:
1123:Src/ov2640.c  ****   {
 369              		.loc 1 1123 3 is_stmt 1 view .LVU98
 370 001c 012C     		cmp	r4, #1
 371 001e 05D0     		beq	.L35
 372 0020 0746     		mov	r7, r0
 373              	.LVL53:
1123:Src/ov2640.c  ****   {
 374              		.loc 1 1123 3 is_stmt 0 view .LVU99
 375 0022 1CB3     		cbz	r4, .L36
 376 0024 032C     		cmp	r4, #3
 377 0026 4FD0     		beq	.L37
 378              	.LVL54:
 379              	.L34:
1166:Src/ov2640.c  **** 
 380              		.loc 1 1166 1 view .LVU100
 381 0028 BDE8F081 		pop	{r4, r5, r6, r7, r8, pc}
 382              	.LVL55:
 383              	.L35:
1127:Src/ov2640.c  ****       CAMERA_IO_Write(DeviceAddr, 0x7c, 0x00);
 384              		.loc 1 1127 7 is_stmt 1 view .LVU101
 385 002c F6B2     		uxtb	r6, r6
 386 002e 0022     		movs	r2, #0
 387 0030 FF21     		movs	r1, #255
 388 0032 3046     		mov	r0, r6
 389              	.LVL56:
1127:Src/ov2640.c  ****       CAMERA_IO_Write(DeviceAddr, 0x7c, 0x00);
ARM GAS  C:\Users\hungv\AppData\Local\Temp\cckPIcAY.s 			page 33


 390              		.loc 1 1127 7 is_stmt 0 view .LVU102
 391 0034 FFF7FEFF 		bl	CAMERA_IO_Write
 392              	.LVL57:
1128:Src/ov2640.c  ****       CAMERA_IO_Write(DeviceAddr, 0x7d, value_tmp);
 393              		.loc 1 1128 7 is_stmt 1 view .LVU103
 394 0038 0022     		movs	r2, #0
 395 003a 7C21     		movs	r1, #124
 396 003c 3046     		mov	r0, r6
 397 003e FFF7FEFF 		bl	CAMERA_IO_Write
 398              	.LVL58:
1129:Src/ov2640.c  ****       CAMERA_IO_Write(DeviceAddr, 0x7c, 0x05);
 399              		.loc 1 1129 7 view .LVU104
 400 0042 EAB2     		uxtb	r2, r5
 401 0044 7D21     		movs	r1, #125
 402 0046 3046     		mov	r0, r6
 403 0048 FFF7FEFF 		bl	CAMERA_IO_Write
 404              	.LVL59:
1130:Src/ov2640.c  ****       CAMERA_IO_Write(DeviceAddr, 0x7d, 0x80);
 405              		.loc 1 1130 7 view .LVU105
 406 004c 0522     		movs	r2, #5
 407 004e 7C21     		movs	r1, #124
 408 0050 3046     		mov	r0, r6
 409 0052 FFF7FEFF 		bl	CAMERA_IO_Write
 410              	.LVL60:
1131:Src/ov2640.c  ****       CAMERA_IO_Write(DeviceAddr, 0x7d, 0x80);
 411              		.loc 1 1131 7 view .LVU106
 412 0056 8022     		movs	r2, #128
 413 0058 7D21     		movs	r1, #125
 414 005a 3046     		mov	r0, r6
 415 005c FFF7FEFF 		bl	CAMERA_IO_Write
 416              	.LVL61:
1132:Src/ov2640.c  ****       break;
 417              		.loc 1 1132 7 view .LVU107
 418 0060 8022     		movs	r2, #128
 419 0062 7D21     		movs	r1, #125
 420 0064 3046     		mov	r0, r6
 421 0066 FFF7FEFF 		bl	CAMERA_IO_Write
 422              	.LVL62:
1133:Src/ov2640.c  ****     }
 423              		.loc 1 1133 7 view .LVU108
 424 006a DDE7     		b	.L34
 425              	.LVL63:
 426              	.L36:
1137:Src/ov2640.c  ****       value2 = (uint8_t)(value_tmp >> 8);
 427              		.loc 1 1137 7 view .LVU109
1137:Src/ov2640.c  ****       value2 = (uint8_t)(value_tmp >> 8);
 428              		.loc 1 1137 14 is_stmt 0 view .LVU110
 429 006c 5FFA85F8 		uxtb	r8, r5
 430              	.LVL64:
1138:Src/ov2640.c  ****       CAMERA_IO_Write(DeviceAddr, 0xff, 0x00);     
 431              		.loc 1 1138 7 is_stmt 1 view .LVU111
1138:Src/ov2640.c  ****       CAMERA_IO_Write(DeviceAddr, 0xff, 0x00);     
 432              		.loc 1 1138 14 is_stmt 0 view .LVU112
 433 0070 C5F30725 		ubfx	r5, r5, #8, #8
 434              	.LVL65:
1139:Src/ov2640.c  ****       CAMERA_IO_Write(DeviceAddr, 0x7c, 0x00);
 435              		.loc 1 1139 7 is_stmt 1 view .LVU113
ARM GAS  C:\Users\hungv\AppData\Local\Temp\cckPIcAY.s 			page 34


 436 0074 F6B2     		uxtb	r6, r6
 437 0076 0022     		movs	r2, #0
 438 0078 FF21     		movs	r1, #255
 439 007a 3046     		mov	r0, r6
 440              	.LVL66:
1139:Src/ov2640.c  ****       CAMERA_IO_Write(DeviceAddr, 0x7c, 0x00);
 441              		.loc 1 1139 7 is_stmt 0 view .LVU114
 442 007c FFF7FEFF 		bl	CAMERA_IO_Write
 443              	.LVL67:
1140:Src/ov2640.c  ****       CAMERA_IO_Write(DeviceAddr, 0x7d, 0x04);
 444              		.loc 1 1140 7 is_stmt 1 view .LVU115
 445 0080 0022     		movs	r2, #0
 446 0082 7C21     		movs	r1, #124
 447 0084 3046     		mov	r0, r6
 448 0086 FFF7FEFF 		bl	CAMERA_IO_Write
 449              	.LVL68:
1141:Src/ov2640.c  ****       CAMERA_IO_Write(DeviceAddr, 0x7c, 0x07);
 450              		.loc 1 1141 7 view .LVU116
 451 008a 0422     		movs	r2, #4
 452 008c 7D21     		movs	r1, #125
 453 008e 3046     		mov	r0, r6
 454 0090 FFF7FEFF 		bl	CAMERA_IO_Write
 455              	.LVL69:
1142:Src/ov2640.c  ****       CAMERA_IO_Write(DeviceAddr, 0x7d, br_value);
 456              		.loc 1 1142 7 view .LVU117
 457 0094 0722     		movs	r2, #7
 458 0096 7C21     		movs	r1, #124
 459 0098 3046     		mov	r0, r6
 460 009a FFF7FEFF 		bl	CAMERA_IO_Write
 461              	.LVL70:
1143:Src/ov2640.c  ****       CAMERA_IO_Write(DeviceAddr, 0x7d, value1);
 462              		.loc 1 1143 7 view .LVU118
 463 009e FAB2     		uxtb	r2, r7
 464 00a0 7D21     		movs	r1, #125
 465 00a2 3046     		mov	r0, r6
 466 00a4 FFF7FEFF 		bl	CAMERA_IO_Write
 467              	.LVL71:
1144:Src/ov2640.c  ****       CAMERA_IO_Write(DeviceAddr, 0x7d, value2);
 468              		.loc 1 1144 7 view .LVU119
 469 00a8 4246     		mov	r2, r8
 470 00aa 7D21     		movs	r1, #125
 471 00ac 3046     		mov	r0, r6
 472 00ae FFF7FEFF 		bl	CAMERA_IO_Write
 473              	.LVL72:
1145:Src/ov2640.c  ****       CAMERA_IO_Write(DeviceAddr, 0x7d, 0x06);
 474              		.loc 1 1145 7 view .LVU120
 475 00b2 2A46     		mov	r2, r5
 476 00b4 7D21     		movs	r1, #125
 477 00b6 3046     		mov	r0, r6
 478 00b8 FFF7FEFF 		bl	CAMERA_IO_Write
 479              	.LVL73:
1146:Src/ov2640.c  ****       break;
 480              		.loc 1 1146 7 view .LVU121
 481 00bc 0622     		movs	r2, #6
 482 00be 7D21     		movs	r1, #125
 483 00c0 3046     		mov	r0, r6
 484 00c2 FFF7FEFF 		bl	CAMERA_IO_Write
ARM GAS  C:\Users\hungv\AppData\Local\Temp\cckPIcAY.s 			page 35


 485              	.LVL74:
1147:Src/ov2640.c  ****     }
 486              		.loc 1 1147 7 view .LVU122
 487 00c6 AFE7     		b	.L34
 488              	.LVL75:
 489              	.L37:
1151:Src/ov2640.c  ****       value2 = (uint8_t)(value_tmp >> 8);
 490              		.loc 1 1151 7 view .LVU123
1151:Src/ov2640.c  ****       value2 = (uint8_t)(value_tmp >> 8);
 491              		.loc 1 1151 14 is_stmt 0 view .LVU124
 492 00c8 EFB2     		uxtb	r7, r5
 493              	.LVL76:
1152:Src/ov2640.c  ****       CAMERA_IO_Write(DeviceAddr, 0xff, 0x00);
 494              		.loc 1 1152 7 is_stmt 1 view .LVU125
1152:Src/ov2640.c  ****       CAMERA_IO_Write(DeviceAddr, 0xff, 0x00);
 495              		.loc 1 1152 14 is_stmt 0 view .LVU126
 496 00ca C5F30725 		ubfx	r5, r5, #8, #8
 497              	.LVL77:
1153:Src/ov2640.c  ****       CAMERA_IO_Write(DeviceAddr, 0x7c, 0x00);
 498              		.loc 1 1153 7 is_stmt 1 view .LVU127
 499 00ce F6B2     		uxtb	r6, r6
 500 00d0 0022     		movs	r2, #0
 501 00d2 FF21     		movs	r1, #255
 502 00d4 3046     		mov	r0, r6
 503              	.LVL78:
1153:Src/ov2640.c  ****       CAMERA_IO_Write(DeviceAddr, 0x7c, 0x00);
 504              		.loc 1 1153 7 is_stmt 0 view .LVU128
 505 00d6 FFF7FEFF 		bl	CAMERA_IO_Write
 506              	.LVL79:
1154:Src/ov2640.c  ****       CAMERA_IO_Write(DeviceAddr, 0x7d, 0x18);
 507              		.loc 1 1154 7 is_stmt 1 view .LVU129
 508 00da 0022     		movs	r2, #0
 509 00dc 7C21     		movs	r1, #124
 510 00de 3046     		mov	r0, r6
 511 00e0 FFF7FEFF 		bl	CAMERA_IO_Write
 512              	.LVL80:
1155:Src/ov2640.c  ****       CAMERA_IO_Write(DeviceAddr, 0x7c, 0x05);
 513              		.loc 1 1155 7 view .LVU130
 514 00e4 1822     		movs	r2, #24
 515 00e6 7D21     		movs	r1, #125
 516 00e8 3046     		mov	r0, r6
 517 00ea FFF7FEFF 		bl	CAMERA_IO_Write
 518              	.LVL81:
1156:Src/ov2640.c  ****       CAMERA_IO_Write(DeviceAddr, 0x7d, value1);
 519              		.loc 1 1156 7 view .LVU131
 520 00ee 0522     		movs	r2, #5
 521 00f0 7C21     		movs	r1, #124
 522 00f2 3046     		mov	r0, r6
 523 00f4 FFF7FEFF 		bl	CAMERA_IO_Write
 524              	.LVL82:
1157:Src/ov2640.c  ****       CAMERA_IO_Write(DeviceAddr, 0x7d, value2);
 525              		.loc 1 1157 7 view .LVU132
 526 00f8 3A46     		mov	r2, r7
 527 00fa 7D21     		movs	r1, #125
 528 00fc 3046     		mov	r0, r6
 529 00fe FFF7FEFF 		bl	CAMERA_IO_Write
 530              	.LVL83:
ARM GAS  C:\Users\hungv\AppData\Local\Temp\cckPIcAY.s 			page 36


1158:Src/ov2640.c  ****       break;
 531              		.loc 1 1158 7 view .LVU133
 532 0102 2A46     		mov	r2, r5
 533 0104 7D21     		movs	r1, #125
 534 0106 3046     		mov	r0, r6
 535 0108 FFF7FEFF 		bl	CAMERA_IO_Write
 536              	.LVL84:
1159:Src/ov2640.c  ****     }     
 537              		.loc 1 1159 7 view .LVU134
1166:Src/ov2640.c  **** 
 538              		.loc 1 1166 1 is_stmt 0 view .LVU135
 539 010c 8CE7     		b	.L34
 540              		.cfi_endproc
 541              	.LFE131:
 543              		.section	.text.CAMERA_IO_Read,"ax",%progbits
 544              		.align	1
 545              		.global	CAMERA_IO_Read
 546              		.syntax unified
 547              		.thumb
 548              		.thumb_func
 549              		.fpu fpv4-sp-d16
 551              	CAMERA_IO_Read:
 552              	.LVL85:
 553              	.LFB136:
1354:Src/ov2640.c  **** 
1355:Src/ov2640.c  **** /**
1356:Src/ov2640.c  ****   * @brief  Camera reads single data.
1357:Src/ov2640.c  ****   * @param  Addr: I2C address
1358:Src/ov2640.c  ****   * @param  Reg: Register address
1359:Src/ov2640.c  ****   * @retval Read data
1360:Src/ov2640.c  ****   */
1361:Src/ov2640.c  **** uint8_t CAMERA_IO_Read(uint8_t Addr, uint8_t Reg)
1362:Src/ov2640.c  **** {
 554              		.loc 1 1362 1 is_stmt 1 view -0
 555              		.cfi_startproc
 556              		@ args = 0, pretend = 0, frame = 0
 557              		@ frame_needed = 0, uses_anonymous_args = 0
 558              		.loc 1 1362 1 is_stmt 0 view .LVU137
 559 0000 08B5     		push	{r3, lr}
 560              	.LCFI3:
 561              		.cfi_def_cfa_offset 8
 562              		.cfi_offset 3, -8
 563              		.cfi_offset 14, -4
1363:Src/ov2640.c  ****   return I2Cx_Read(Addr, Reg);
 564              		.loc 1 1363 3 is_stmt 1 view .LVU138
 565              		.loc 1 1363 10 is_stmt 0 view .LVU139
 566 0002 FFF7FEFF 		bl	I2Cx_Read
 567              	.LVL86:
1364:Src/ov2640.c  **** }
 568              		.loc 1 1364 1 view .LVU140
 569 0006 08BD     		pop	{r3, pc}
 570              		.cfi_endproc
 571              	.LFE136:
 573              		.section	.text.ov2640_ReadID,"ax",%progbits
 574              		.align	1
 575              		.global	ov2640_ReadID
 576              		.syntax unified
ARM GAS  C:\Users\hungv\AppData\Local\Temp\cckPIcAY.s 			page 37


 577              		.thumb
 578              		.thumb_func
 579              		.fpu fpv4-sp-d16
 581              	ov2640_ReadID:
 582              	.LVL87:
 583              	.LFB132:
1174:Src/ov2640.c  ****   /* Initialize I2C */
 584              		.loc 1 1174 1 is_stmt 1 view -0
 585              		.cfi_startproc
 586              		@ args = 0, pretend = 0, frame = 0
 587              		@ frame_needed = 0, uses_anonymous_args = 0
1174:Src/ov2640.c  ****   /* Initialize I2C */
 588              		.loc 1 1174 1 is_stmt 0 view .LVU142
 589 0000 10B5     		push	{r4, lr}
 590              	.LCFI4:
 591              		.cfi_def_cfa_offset 8
 592              		.cfi_offset 4, -8
 593              		.cfi_offset 14, -4
 594 0002 0446     		mov	r4, r0
1176:Src/ov2640.c  ****   
 595              		.loc 1 1176 3 is_stmt 1 view .LVU143
 596 0004 FFF7FEFF 		bl	CAMERA_IO_Init
 597              	.LVL88:
1179:Src/ov2640.c  ****   
 598              		.loc 1 1179 3 view .LVU144
 599 0008 E4B2     		uxtb	r4, r4
 600 000a 0122     		movs	r2, #1
 601 000c FF21     		movs	r1, #255
 602 000e 2046     		mov	r0, r4
 603 0010 FFF7FEFF 		bl	CAMERA_IO_Write
 604              	.LVL89:
1182:Src/ov2640.c  **** }
 605              		.loc 1 1182 3 view .LVU145
1182:Src/ov2640.c  **** }
 606              		.loc 1 1182 11 is_stmt 0 view .LVU146
 607 0014 0A21     		movs	r1, #10
 608 0016 2046     		mov	r0, r4
 609 0018 FFF7FEFF 		bl	CAMERA_IO_Read
 610              	.LVL90:
1183:Src/ov2640.c  **** 
 611              		.loc 1 1183 1 view .LVU147
 612 001c 10BD     		pop	{r4, pc}
 613              		.cfi_endproc
 614              	.LFE132:
 616              		.section	.text.CAMERA_Delay,"ax",%progbits
 617              		.align	1
 618              		.global	CAMERA_Delay
 619              		.syntax unified
 620              		.thumb
 621              		.thumb_func
 622              		.fpu fpv4-sp-d16
 624              	CAMERA_Delay:
 625              	.LVL91:
 626              	.LFB137:
1365:Src/ov2640.c  **** 
1366:Src/ov2640.c  **** /**
1367:Src/ov2640.c  ****   * @brief  Camera delay
ARM GAS  C:\Users\hungv\AppData\Local\Temp\cckPIcAY.s 			page 38


1368:Src/ov2640.c  ****   * @param  Delay: Delay in ms
1369:Src/ov2640.c  ****   */
1370:Src/ov2640.c  **** void CAMERA_Delay(uint32_t Delay)
1371:Src/ov2640.c  **** {
 627              		.loc 1 1371 1 is_stmt 1 view -0
 628              		.cfi_startproc
 629              		@ args = 0, pretend = 0, frame = 0
 630              		@ frame_needed = 0, uses_anonymous_args = 0
 631              		.loc 1 1371 1 is_stmt 0 view .LVU149
 632 0000 08B5     		push	{r3, lr}
 633              	.LCFI5:
 634              		.cfi_def_cfa_offset 8
 635              		.cfi_offset 3, -8
 636              		.cfi_offset 14, -4
1372:Src/ov2640.c  ****   HAL_Delay(Delay);
 637              		.loc 1 1372 3 is_stmt 1 view .LVU150
 638 0002 FFF7FEFF 		bl	HAL_Delay
 639              	.LVL92:
1373:Src/ov2640.c  **** }
 640              		.loc 1 1373 1 is_stmt 0 view .LVU151
 641 0006 08BD     		pop	{r3, pc}
 642              		.cfi_endproc
 643              	.LFE137:
 645              		.section	.text.ov2640_Init,"ax",%progbits
 646              		.align	1
 647              		.global	ov2640_Init
 648              		.syntax unified
 649              		.thumb
 650              		.thumb_func
 651              		.fpu fpv4-sp-d16
 653              	ov2640_Init:
 654              	.LVL93:
 655              	.LFB130:
1048:Src/ov2640.c  ****   uint32_t index;
 656              		.loc 1 1048 1 is_stmt 1 view -0
 657              		.cfi_startproc
 658              		@ args = 0, pretend = 0, frame = 0
 659              		@ frame_needed = 0, uses_anonymous_args = 0
1048:Src/ov2640.c  ****   uint32_t index;
 660              		.loc 1 1048 1 is_stmt 0 view .LVU153
 661 0000 38B5     		push	{r3, r4, r5, lr}
 662              	.LCFI6:
 663              		.cfi_def_cfa_offset 16
 664              		.cfi_offset 3, -16
 665              		.cfi_offset 4, -12
 666              		.cfi_offset 5, -8
 667              		.cfi_offset 14, -4
 668 0002 0546     		mov	r5, r0
 669 0004 0C46     		mov	r4, r1
1049:Src/ov2640.c  ****   
 670              		.loc 1 1049 3 is_stmt 1 view .LVU154
1052:Src/ov2640.c  ****   
 671              		.loc 1 1052 3 view .LVU155
 672 0006 FFF7FEFF 		bl	CAMERA_IO_Init
 673              	.LVL94:
1055:Src/ov2640.c  ****   CAMERA_IO_Write(DeviceAddr, OV2640_SENSOR_COM7, 0x80);
 674              		.loc 1 1055 3 view .LVU156
ARM GAS  C:\Users\hungv\AppData\Local\Temp\cckPIcAY.s 			page 39


 675 000a EDB2     		uxtb	r5, r5
 676 000c 0122     		movs	r2, #1
 677 000e FF21     		movs	r1, #255
 678 0010 2846     		mov	r0, r5
 679 0012 FFF7FEFF 		bl	CAMERA_IO_Write
 680              	.LVL95:
1056:Src/ov2640.c  ****   CAMERA_Delay(200);
 681              		.loc 1 1056 3 view .LVU157
 682 0016 8022     		movs	r2, #128
 683 0018 1221     		movs	r1, #18
 684 001a 2846     		mov	r0, r5
 685 001c FFF7FEFF 		bl	CAMERA_IO_Write
 686              	.LVL96:
1057:Src/ov2640.c  ****   
 687              		.loc 1 1057 3 view .LVU158
 688 0020 C820     		movs	r0, #200
 689 0022 FFF7FEFF 		bl	CAMERA_Delay
 690              	.LVL97:
1060:Src/ov2640.c  ****   {
 691              		.loc 1 1060 3 view .LVU159
 692 0026 032C     		cmp	r4, #3
 693 0028 46D8     		bhi	.L46
 694 002a DFE804F0 		tbb	[pc, r4]
 695              	.L49:
 696 002e 02       		.byte	(.L52-.L49)/2
 697 002f 12       		.byte	(.L57-.L49)/2
 698 0030 23       		.byte	(.L58-.L49)/2
 699 0031 34       		.byte	(.L59-.L49)/2
 700              	.LVL98:
 701              		.p2align 1
 702              	.L52:
1064:Src/ov2640.c  ****       {
 703              		.loc 1 1064 7 is_stmt 0 discriminator 1 view .LVU160
 704 0032 DB2C     		cmp	r4, #219
 705 0034 40D8     		bhi	.L46
1066:Src/ov2640.c  ****         CAMERA_Delay(1);
 706              		.loc 1 1066 9 is_stmt 1 discriminator 3 view .LVU161
1066:Src/ov2640.c  ****         CAMERA_Delay(1);
 707              		.loc 1 1066 56 is_stmt 0 discriminator 3 view .LVU162
 708 0036 214B     		ldr	r3, .L61
1066:Src/ov2640.c  ****         CAMERA_Delay(1);
 709              		.loc 1 1066 80 discriminator 3 view .LVU163
 710 0038 03EB4402 		add	r2, r3, r4, lsl #1
1066:Src/ov2640.c  ****         CAMERA_Delay(1);
 711              		.loc 1 1066 9 discriminator 3 view .LVU164
 712 003c 5278     		ldrb	r2, [r2, #1]	@ zero_extendqisi2
 713 003e 13F81410 		ldrb	r1, [r3, r4, lsl #1]	@ zero_extendqisi2
 714 0042 2846     		mov	r0, r5
 715 0044 FFF7FEFF 		bl	CAMERA_IO_Write
 716              	.LVL99:
1067:Src/ov2640.c  ****       } 
 717              		.loc 1 1067 9 is_stmt 1 discriminator 3 view .LVU165
 718 0048 0120     		movs	r0, #1
 719 004a FFF7FEFF 		bl	CAMERA_Delay
 720              	.LVL100:
1064:Src/ov2640.c  ****       {
 721              		.loc 1 1064 57 is_stmt 0 discriminator 3 view .LVU166
ARM GAS  C:\Users\hungv\AppData\Local\Temp\cckPIcAY.s 			page 40


 722 004e 0134     		adds	r4, r4, #1
 723              	.LVL101:
1064:Src/ov2640.c  ****       {
 724              		.loc 1 1064 57 discriminator 3 view .LVU167
 725 0050 EFE7     		b	.L52
 726              	.LVL102:
 727              	.L57:
1073:Src/ov2640.c  ****       {
 728              		.loc 1 1073 16 view .LVU168
 729 0052 0024     		movs	r4, #0
 730              	.LVL103:
 731              	.L51:
1073:Src/ov2640.c  ****       {
 732              		.loc 1 1073 7 discriminator 1 view .LVU169
 733 0054 DB2C     		cmp	r4, #219
 734 0056 2FD8     		bhi	.L46
1075:Src/ov2640.c  ****         CAMERA_Delay(1);
 735              		.loc 1 1075 9 is_stmt 1 discriminator 3 view .LVU170
 736 0058 194B     		ldr	r3, .L61+4
 737 005a 03EB4402 		add	r2, r3, r4, lsl #1
 738 005e 5278     		ldrb	r2, [r2, #1]	@ zero_extendqisi2
 739 0060 13F81410 		ldrb	r1, [r3, r4, lsl #1]	@ zero_extendqisi2
 740 0064 2846     		mov	r0, r5
 741 0066 FFF7FEFF 		bl	CAMERA_IO_Write
 742              	.LVL104:
1076:Src/ov2640.c  ****       } 
 743              		.loc 1 1076 9 discriminator 3 view .LVU171
 744 006a 0120     		movs	r0, #1
 745 006c FFF7FEFF 		bl	CAMERA_Delay
 746              	.LVL105:
1073:Src/ov2640.c  ****       {
 747              		.loc 1 1073 56 is_stmt 0 discriminator 3 view .LVU172
 748 0070 0134     		adds	r4, r4, #1
 749              	.LVL106:
1073:Src/ov2640.c  ****       {
 750              		.loc 1 1073 56 discriminator 3 view .LVU173
 751 0072 EFE7     		b	.L51
 752              	.LVL107:
 753              	.L58:
1082:Src/ov2640.c  ****       {
 754              		.loc 1 1082 16 view .LVU174
 755 0074 0024     		movs	r4, #0
 756              	.LVL108:
 757              	.L50:
1082:Src/ov2640.c  ****       {
 758              		.loc 1 1082 7 discriminator 1 view .LVU175
 759 0076 EC2C     		cmp	r4, #236
 760 0078 1ED8     		bhi	.L46
1084:Src/ov2640.c  ****         CAMERA_Delay(2);
 761              		.loc 1 1084 9 is_stmt 1 discriminator 3 view .LVU176
 762 007a 124B     		ldr	r3, .L61+8
 763 007c 03EB4402 		add	r2, r3, r4, lsl #1
 764 0080 5278     		ldrb	r2, [r2, #1]	@ zero_extendqisi2
 765 0082 13F81410 		ldrb	r1, [r3, r4, lsl #1]	@ zero_extendqisi2
 766 0086 2846     		mov	r0, r5
 767 0088 FFF7FEFF 		bl	CAMERA_IO_Write
 768              	.LVL109:
ARM GAS  C:\Users\hungv\AppData\Local\Temp\cckPIcAY.s 			page 41


1085:Src/ov2640.c  ****       }
 769              		.loc 1 1085 9 discriminator 3 view .LVU177
 770 008c 0220     		movs	r0, #2
 771 008e FFF7FEFF 		bl	CAMERA_Delay
 772              	.LVL110:
1082:Src/ov2640.c  ****       {
 773              		.loc 1 1082 59 is_stmt 0 discriminator 3 view .LVU178
 774 0092 0134     		adds	r4, r4, #1
 775              	.LVL111:
1082:Src/ov2640.c  ****       {
 776              		.loc 1 1082 59 discriminator 3 view .LVU179
 777 0094 EFE7     		b	.L50
 778              	.LVL112:
 779              	.L59:
1091:Src/ov2640.c  ****       {
 780              		.loc 1 1091 16 view .LVU180
 781 0096 0024     		movs	r4, #0
 782              	.LVL113:
 783              	.L48:
1091:Src/ov2640.c  ****       {
 784              		.loc 1 1091 7 discriminator 1 view .LVU181
 785 0098 EC2C     		cmp	r4, #236
 786 009a 0DD8     		bhi	.L46
1093:Src/ov2640.c  ****         CAMERA_Delay(2);
 787              		.loc 1 1093 9 is_stmt 1 discriminator 3 view .LVU182
 788 009c 0A4B     		ldr	r3, .L61+12
 789 009e 03EB4402 		add	r2, r3, r4, lsl #1
 790 00a2 5278     		ldrb	r2, [r2, #1]	@ zero_extendqisi2
 791 00a4 13F81410 		ldrb	r1, [r3, r4, lsl #1]	@ zero_extendqisi2
 792 00a8 2846     		mov	r0, r5
 793 00aa FFF7FEFF 		bl	CAMERA_IO_Write
 794              	.LVL114:
1094:Src/ov2640.c  ****       }
 795              		.loc 1 1094 9 discriminator 3 view .LVU183
 796 00ae 0220     		movs	r0, #2
 797 00b0 FFF7FEFF 		bl	CAMERA_Delay
 798              	.LVL115:
1091:Src/ov2640.c  ****       {
 799              		.loc 1 1091 55 is_stmt 0 discriminator 3 view .LVU184
 800 00b4 0134     		adds	r4, r4, #1
 801              	.LVL116:
1091:Src/ov2640.c  ****       {
 802              		.loc 1 1091 55 discriminator 3 view .LVU185
 803 00b6 EFE7     		b	.L48
 804              	.LVL117:
 805              	.L46:
1103:Src/ov2640.c  **** 
 806              		.loc 1 1103 1 view .LVU186
 807 00b8 38BD     		pop	{r3, r4, r5, pc}
 808              	.L62:
 809 00ba 00BF     		.align	2
 810              	.L61:
 811 00bc 00000000 		.word	.LANCHOR0
 812 00c0 00000000 		.word	.LANCHOR1
 813 00c4 00000000 		.word	.LANCHOR2
 814 00c8 00000000 		.word	.LANCHOR3
 815              		.cfi_endproc
ARM GAS  C:\Users\hungv\AppData\Local\Temp\cckPIcAY.s 			page 42


 816              	.LFE130:
 818              		.global	OV2640_QQVGA
 819              		.global	OV2640_QVGA
 820              		.global	OV2640_VGA
 821              		.global	OV2640_480x272
 822              		.global	ov2640_drv
 823              		.section	.data.ov2640_drv,"aw"
 824              		.align	2
 827              	ov2640_drv:
 828 0000 00000000 		.word	ov2640_Init
 829 0004 00000000 		.word	ov2640_ReadID
 830 0008 00000000 		.word	ov2640_Config
 831              		.section	.rodata.OV2640_480x272,"a"
 832              		.align	2
 833              		.set	.LANCHOR2,. + 0
 836              	OV2640_480x272:
 837 0000 FF       		.byte	-1
 838 0001 00       		.byte	0
 839 0002 2C       		.byte	44
 840 0003 FF       		.byte	-1
 841 0004 2E       		.byte	46
 842 0005 DF       		.byte	-33
 843 0006 FF       		.byte	-1
 844 0007 01       		.byte	1
 845 0008 3C       		.byte	60
 846 0009 32       		.byte	50
 847 000a 11       		.byte	17
 848 000b 00       		.byte	0
 849 000c 09       		.byte	9
 850 000d 02       		.byte	2
 851 000e 04       		.byte	4
 852 000f A8       		.byte	-88
 853 0010 13       		.byte	19
 854 0011 E5       		.byte	-27
 855 0012 14       		.byte	20
 856 0013 48       		.byte	72
 857 0014 2C       		.byte	44
 858 0015 0C       		.byte	12
 859 0016 33       		.byte	51
 860 0017 78       		.byte	120
 861 0018 3A       		.byte	58
 862 0019 33       		.byte	51
 863 001a 3B       		.byte	59
 864 001b FB       		.byte	-5
 865 001c 3E       		.byte	62
 866 001d 00       		.byte	0
 867 001e 43       		.byte	67
 868 001f 11       		.byte	17
 869 0020 16       		.byte	22
 870 0021 10       		.byte	16
 871 0022 4A       		.byte	74
 872 0023 81       		.byte	-127
 873 0024 21       		.byte	33
 874 0025 99       		.byte	-103
 875 0026 24       		.byte	36
 876 0027 40       		.byte	64
 877 0028 25       		.byte	37
ARM GAS  C:\Users\hungv\AppData\Local\Temp\cckPIcAY.s 			page 43


 878 0029 38       		.byte	56
 879 002a 26       		.byte	38
 880 002b 82       		.byte	-126
 881 002c 5C       		.byte	92
 882 002d 00       		.byte	0
 883 002e 63       		.byte	99
 884 002f 00       		.byte	0
 885 0030 46       		.byte	70
 886 0031 3F       		.byte	63
 887 0032 0C       		.byte	12
 888 0033 3C       		.byte	60
 889 0034 61       		.byte	97
 890 0035 70       		.byte	112
 891 0036 62       		.byte	98
 892 0037 80       		.byte	-128
 893 0038 7C       		.byte	124
 894 0039 05       		.byte	5
 895 003a 20       		.byte	32
 896 003b 80       		.byte	-128
 897 003c 28       		.byte	40
 898 003d 30       		.byte	48
 899 003e 6C       		.byte	108
 900 003f 00       		.byte	0
 901 0040 6D       		.byte	109
 902 0041 80       		.byte	-128
 903 0042 6E       		.byte	110
 904 0043 00       		.byte	0
 905 0044 70       		.byte	112
 906 0045 02       		.byte	2
 907 0046 71       		.byte	113
 908 0047 94       		.byte	-108
 909 0048 73       		.byte	115
 910 0049 C1       		.byte	-63
 911 004a 3D       		.byte	61
 912 004b 34       		.byte	52
 913 004c 5A       		.byte	90
 914 004d 57       		.byte	87
 915 004e 12       		.byte	18
 916 004f 00       		.byte	0
 917 0050 11       		.byte	17
 918 0051 00       		.byte	0
 919 0052 17       		.byte	23
 920 0053 11       		.byte	17
 921 0054 18       		.byte	24
 922 0055 75       		.byte	117
 923 0056 19       		.byte	25
 924 0057 01       		.byte	1
 925 0058 1A       		.byte	26
 926 0059 97       		.byte	-105
 927 005a 32       		.byte	50
 928 005b 36       		.byte	54
 929 005c 03       		.byte	3
 930 005d 0F       		.byte	15
 931 005e 37       		.byte	55
 932 005f 40       		.byte	64
 933 0060 4F       		.byte	79
 934 0061 BB       		.byte	-69
ARM GAS  C:\Users\hungv\AppData\Local\Temp\cckPIcAY.s 			page 44


 935 0062 50       		.byte	80
 936 0063 9C       		.byte	-100
 937 0064 5A       		.byte	90
 938 0065 57       		.byte	87
 939 0066 6D       		.byte	109
 940 0067 80       		.byte	-128
 941 0068 6D       		.byte	109
 942 0069 38       		.byte	56
 943 006a 39       		.byte	57
 944 006b 02       		.byte	2
 945 006c 35       		.byte	53
 946 006d 88       		.byte	-120
 947 006e 22       		.byte	34
 948 006f 0A       		.byte	10
 949 0070 37       		.byte	55
 950 0071 40       		.byte	64
 951 0072 23       		.byte	35
 952 0073 00       		.byte	0
 953 0074 34       		.byte	52
 954 0075 A0       		.byte	-96
 955 0076 36       		.byte	54
 956 0077 1A       		.byte	26
 957 0078 06       		.byte	6
 958 0079 02       		.byte	2
 959 007a 07       		.byte	7
 960 007b C0       		.byte	-64
 961 007c 0D       		.byte	13
 962 007d B7       		.byte	-73
 963 007e 0E       		.byte	14
 964 007f 01       		.byte	1
 965 0080 4C       		.byte	76
 966 0081 00       		.byte	0
 967 0082 FF       		.byte	-1
 968 0083 00       		.byte	0
 969 0084 E5       		.byte	-27
 970 0085 7F       		.byte	127
 971 0086 F9       		.byte	-7
 972 0087 C0       		.byte	-64
 973 0088 41       		.byte	65
 974 0089 24       		.byte	36
 975 008a E0       		.byte	-32
 976 008b 14       		.byte	20
 977 008c 76       		.byte	118
 978 008d FF       		.byte	-1
 979 008e 33       		.byte	51
 980 008f A0       		.byte	-96
 981 0090 42       		.byte	66
 982 0091 20       		.byte	32
 983 0092 43       		.byte	67
 984 0093 18       		.byte	24
 985 0094 4C       		.byte	76
 986 0095 00       		.byte	0
 987 0096 87       		.byte	-121
 988 0097 D0       		.byte	-48
 989 0098 88       		.byte	-120
 990 0099 3F       		.byte	63
 991 009a D7       		.byte	-41
ARM GAS  C:\Users\hungv\AppData\Local\Temp\cckPIcAY.s 			page 45


 992 009b 03       		.byte	3
 993 009c D9       		.byte	-39
 994 009d 10       		.byte	16
 995 009e D3       		.byte	-45
 996 009f 82       		.byte	-126
 997 00a0 C8       		.byte	-56
 998 00a1 08       		.byte	8
 999 00a2 C9       		.byte	-55
 1000 00a3 80       		.byte	-128
 1001 00a4 7D       		.byte	125
 1002 00a5 00       		.byte	0
 1003 00a6 7C       		.byte	124
 1004 00a7 03       		.byte	3
 1005 00a8 7D       		.byte	125
 1006 00a9 48       		.byte	72
 1007 00aa 7C       		.byte	124
 1008 00ab 08       		.byte	8
 1009 00ac 7D       		.byte	125
 1010 00ad 20       		.byte	32
 1011 00ae 7D       		.byte	125
 1012 00af 10       		.byte	16
 1013 00b0 7D       		.byte	125
 1014 00b1 0E       		.byte	14
 1015 00b2 90       		.byte	-112
 1016 00b3 00       		.byte	0
 1017 00b4 91       		.byte	-111
 1018 00b5 0E       		.byte	14
 1019 00b6 91       		.byte	-111
 1020 00b7 1A       		.byte	26
 1021 00b8 91       		.byte	-111
 1022 00b9 31       		.byte	49
 1023 00ba 91       		.byte	-111
 1024 00bb 5A       		.byte	90
 1025 00bc 91       		.byte	-111
 1026 00bd 69       		.byte	105
 1027 00be 91       		.byte	-111
 1028 00bf 75       		.byte	117
 1029 00c0 91       		.byte	-111
 1030 00c1 7E       		.byte	126
 1031 00c2 91       		.byte	-111
 1032 00c3 88       		.byte	-120
 1033 00c4 91       		.byte	-111
 1034 00c5 8F       		.byte	-113
 1035 00c6 91       		.byte	-111
 1036 00c7 96       		.byte	-106
 1037 00c8 91       		.byte	-111
 1038 00c9 A3       		.byte	-93
 1039 00ca 91       		.byte	-111
 1040 00cb AF       		.byte	-81
 1041 00cc 91       		.byte	-111
 1042 00cd C4       		.byte	-60
 1043 00ce 91       		.byte	-111
 1044 00cf D7       		.byte	-41
 1045 00d0 91       		.byte	-111
 1046 00d1 E8       		.byte	-24
 1047 00d2 91       		.byte	-111
 1048 00d3 20       		.byte	32
ARM GAS  C:\Users\hungv\AppData\Local\Temp\cckPIcAY.s 			page 46


 1049 00d4 92       		.byte	-110
 1050 00d5 00       		.byte	0
 1051 00d6 93       		.byte	-109
 1052 00d7 06       		.byte	6
 1053 00d8 93       		.byte	-109
 1054 00d9 E3       		.byte	-29
 1055 00da 93       		.byte	-109
 1056 00db 02       		.byte	2
 1057 00dc 93       		.byte	-109
 1058 00dd 02       		.byte	2
 1059 00de 93       		.byte	-109
 1060 00df 00       		.byte	0
 1061 00e0 93       		.byte	-109
 1062 00e1 04       		.byte	4
 1063 00e2 93       		.byte	-109
 1064 00e3 00       		.byte	0
 1065 00e4 93       		.byte	-109
 1066 00e5 03       		.byte	3
 1067 00e6 93       		.byte	-109
 1068 00e7 00       		.byte	0
 1069 00e8 93       		.byte	-109
 1070 00e9 00       		.byte	0
 1071 00ea 93       		.byte	-109
 1072 00eb 00       		.byte	0
 1073 00ec 93       		.byte	-109
 1074 00ed 00       		.byte	0
 1075 00ee 93       		.byte	-109
 1076 00ef 00       		.byte	0
 1077 00f0 93       		.byte	-109
 1078 00f1 00       		.byte	0
 1079 00f2 93       		.byte	-109
 1080 00f3 00       		.byte	0
 1081 00f4 96       		.byte	-106
 1082 00f5 00       		.byte	0
 1083 00f6 97       		.byte	-105
 1084 00f7 08       		.byte	8
 1085 00f8 97       		.byte	-105
 1086 00f9 19       		.byte	25
 1087 00fa 97       		.byte	-105
 1088 00fb 02       		.byte	2
 1089 00fc 97       		.byte	-105
 1090 00fd 0C       		.byte	12
 1091 00fe 97       		.byte	-105
 1092 00ff 24       		.byte	36
 1093 0100 97       		.byte	-105
 1094 0101 30       		.byte	48
 1095 0102 97       		.byte	-105
 1096 0103 28       		.byte	40
 1097 0104 97       		.byte	-105
 1098 0105 26       		.byte	38
 1099 0106 97       		.byte	-105
 1100 0107 02       		.byte	2
 1101 0108 97       		.byte	-105
 1102 0109 98       		.byte	-104
 1103 010a 97       		.byte	-105
 1104 010b 80       		.byte	-128
 1105 010c 97       		.byte	-105
ARM GAS  C:\Users\hungv\AppData\Local\Temp\cckPIcAY.s 			page 47


 1106 010d 00       		.byte	0
 1107 010e 97       		.byte	-105
 1108 010f 00       		.byte	0
 1109 0110 C3       		.byte	-61
 1110 0111 EF       		.byte	-17
 1111 0112 FF       		.byte	-1
 1112 0113 00       		.byte	0
 1113 0114 BA       		.byte	-70
 1114 0115 DC       		.byte	-36
 1115 0116 BB       		.byte	-69
 1116 0117 08       		.byte	8
 1117 0118 B6       		.byte	-74
 1118 0119 24       		.byte	36
 1119 011a B8       		.byte	-72
 1120 011b 33       		.byte	51
 1121 011c B7       		.byte	-73
 1122 011d 20       		.byte	32
 1123 011e B9       		.byte	-71
 1124 011f 30       		.byte	48
 1125 0120 B3       		.byte	-77
 1126 0121 B4       		.byte	-76
 1127 0122 B4       		.byte	-76
 1128 0123 CA       		.byte	-54
 1129 0124 B5       		.byte	-75
 1130 0125 43       		.byte	67
 1131 0126 B0       		.byte	-80
 1132 0127 5C       		.byte	92
 1133 0128 B1       		.byte	-79
 1134 0129 4F       		.byte	79
 1135 012a B2       		.byte	-78
 1136 012b 06       		.byte	6
 1137 012c C7       		.byte	-57
 1138 012d 00       		.byte	0
 1139 012e C6       		.byte	-58
 1140 012f 51       		.byte	81
 1141 0130 C5       		.byte	-59
 1142 0131 11       		.byte	17
 1143 0132 C4       		.byte	-60
 1144 0133 9C       		.byte	-100
 1145 0134 BF       		.byte	-65
 1146 0135 00       		.byte	0
 1147 0136 BC       		.byte	-68
 1148 0137 64       		.byte	100
 1149 0138 A6       		.byte	-90
 1150 0139 00       		.byte	0
 1151 013a A7       		.byte	-89
 1152 013b 1E       		.byte	30
 1153 013c A7       		.byte	-89
 1154 013d 6B       		.byte	107
 1155 013e A7       		.byte	-89
 1156 013f 47       		.byte	71
 1157 0140 A7       		.byte	-89
 1158 0141 33       		.byte	51
 1159 0142 A7       		.byte	-89
 1160 0143 00       		.byte	0
 1161 0144 A7       		.byte	-89
 1162 0145 23       		.byte	35
ARM GAS  C:\Users\hungv\AppData\Local\Temp\cckPIcAY.s 			page 48


 1163 0146 A7       		.byte	-89
 1164 0147 2E       		.byte	46
 1165 0148 A7       		.byte	-89
 1166 0149 85       		.byte	-123
 1167 014a A7       		.byte	-89
 1168 014b 42       		.byte	66
 1169 014c A7       		.byte	-89
 1170 014d 33       		.byte	51
 1171 014e A7       		.byte	-89
 1172 014f 00       		.byte	0
 1173 0150 A7       		.byte	-89
 1174 0151 23       		.byte	35
 1175 0152 A7       		.byte	-89
 1176 0153 1B       		.byte	27
 1177 0154 A7       		.byte	-89
 1178 0155 74       		.byte	116
 1179 0156 A7       		.byte	-89
 1180 0157 42       		.byte	66
 1181 0158 A7       		.byte	-89
 1182 0159 33       		.byte	51
 1183 015a A7       		.byte	-89
 1184 015b 00       		.byte	0
 1185 015c A7       		.byte	-89
 1186 015d 23       		.byte	35
 1187 015e C0       		.byte	-64
 1188 015f C8       		.byte	-56
 1189 0160 C1       		.byte	-63
 1190 0161 96       		.byte	-106
 1191 0162 8C       		.byte	-116
 1192 0163 00       		.byte	0
 1193 0164 86       		.byte	-122
 1194 0165 3D       		.byte	61
 1195 0166 50       		.byte	80
 1196 0167 92       		.byte	-110
 1197 0168 51       		.byte	81
 1198 0169 90       		.byte	-112
 1199 016a 52       		.byte	82
 1200 016b 2C       		.byte	44
 1201 016c 53       		.byte	83
 1202 016d 00       		.byte	0
 1203 016e 54       		.byte	84
 1204 016f 00       		.byte	0
 1205 0170 55       		.byte	85
 1206 0171 88       		.byte	-120
 1207 0172 5A       		.byte	90
 1208 0173 50       		.byte	80
 1209 0174 5B       		.byte	91
 1210 0175 3C       		.byte	60
 1211 0176 5C       		.byte	92
 1212 0177 00       		.byte	0
 1213 0178 D3       		.byte	-45
 1214 0179 04       		.byte	4
 1215 017a 7F       		.byte	127
 1216 017b 00       		.byte	0
 1217 017c DA       		.byte	-38
 1218 017d 00       		.byte	0
 1219 017e E5       		.byte	-27
ARM GAS  C:\Users\hungv\AppData\Local\Temp\cckPIcAY.s 			page 49


 1220 017f 1F       		.byte	31
 1221 0180 E1       		.byte	-31
 1222 0181 67       		.byte	103
 1223 0182 E0       		.byte	-32
 1224 0183 00       		.byte	0
 1225 0184 DD       		.byte	-35
 1226 0185 7F       		.byte	127
 1227 0186 05       		.byte	5
 1228 0187 00       		.byte	0
 1229 0188 FF       		.byte	-1
 1230 0189 00       		.byte	0
 1231 018a E0       		.byte	-32
 1232 018b 04       		.byte	4
 1233 018c C0       		.byte	-64
 1234 018d C8       		.byte	-56
 1235 018e C1       		.byte	-63
 1236 018f 96       		.byte	-106
 1237 0190 86       		.byte	-122
 1238 0191 3D       		.byte	61
 1239 0192 50       		.byte	80
 1240 0193 92       		.byte	-110
 1241 0194 51       		.byte	81
 1242 0195 90       		.byte	-112
 1243 0196 52       		.byte	82
 1244 0197 2C       		.byte	44
 1245 0198 53       		.byte	83
 1246 0199 00       		.byte	0
 1247 019a 54       		.byte	84
 1248 019b 00       		.byte	0
 1249 019c 55       		.byte	85
 1250 019d 88       		.byte	-120
 1251 019e 57       		.byte	87
 1252 019f 00       		.byte	0
 1253 01a0 5A       		.byte	90
 1254 01a1 50       		.byte	80
 1255 01a2 5B       		.byte	91
 1256 01a3 3C       		.byte	60
 1257 01a4 5C       		.byte	92
 1258 01a5 00       		.byte	0
 1259 01a6 D3       		.byte	-45
 1260 01a7 04       		.byte	4
 1261 01a8 E0       		.byte	-32
 1262 01a9 00       		.byte	0
 1263 01aa FF       		.byte	-1
 1264 01ab 00       		.byte	0
 1265 01ac 05       		.byte	5
 1266 01ad 00       		.byte	0
 1267 01ae DA       		.byte	-38
 1268 01af 08       		.byte	8
 1269 01b0 DA       		.byte	-38
 1270 01b1 09       		.byte	9
 1271 01b2 98       		.byte	-104
 1272 01b3 00       		.byte	0
 1273 01b4 99       		.byte	-103
 1274 01b5 00       		.byte	0
 1275 01b6 00       		.byte	0
 1276 01b7 00       		.byte	0
ARM GAS  C:\Users\hungv\AppData\Local\Temp\cckPIcAY.s 			page 50


 1277 01b8 FF       		.byte	-1
 1278 01b9 00       		.byte	0
 1279 01ba E0       		.byte	-32
 1280 01bb 04       		.byte	4
 1281 01bc C0       		.byte	-64
 1282 01bd C8       		.byte	-56
 1283 01be C1       		.byte	-63
 1284 01bf 96       		.byte	-106
 1285 01c0 86       		.byte	-122
 1286 01c1 35       		.byte	53
 1287 01c2 50       		.byte	80
 1288 01c3 80       		.byte	-128
 1289 01c4 51       		.byte	81
 1290 01c5 90       		.byte	-112
 1291 01c6 52       		.byte	82
 1292 01c7 2C       		.byte	44
 1293 01c8 53       		.byte	83
 1294 01c9 00       		.byte	0
 1295 01ca 54       		.byte	84
 1296 01cb 00       		.byte	0
 1297 01cc 55       		.byte	85
 1298 01cd 88       		.byte	-120
 1299 01ce 57       		.byte	87
 1300 01cf 00       		.byte	0
 1301 01d0 5A       		.byte	90
 1302 01d1 78       		.byte	120
 1303 01d2 5B       		.byte	91
 1304 01d3 44       		.byte	68
 1305 01d4 5C       		.byte	92
 1306 01d5 00       		.byte	0
 1307 01d6 D3       		.byte	-45
 1308 01d7 04       		.byte	4
 1309 01d8 E0       		.byte	-32
 1310 01d9 00       		.byte	0
 1311              		.section	.rodata.OV2640_QQVGA,"a"
 1312              		.align	2
 1313              		.set	.LANCHOR0,. + 0
 1316              	OV2640_QQVGA:
 1317 0000 FF       		.byte	-1
 1318 0001 00       		.byte	0
 1319 0002 2C       		.byte	44
 1320 0003 FF       		.byte	-1
 1321 0004 2E       		.byte	46
 1322 0005 DF       		.byte	-33
 1323 0006 FF       		.byte	-1
 1324 0007 01       		.byte	1
 1325 0008 3C       		.byte	60
 1326 0009 32       		.byte	50
 1327 000a 11       		.byte	17
 1328 000b 00       		.byte	0
 1329 000c 09       		.byte	9
 1330 000d 02       		.byte	2
 1331 000e 04       		.byte	4
 1332 000f A8       		.byte	-88
 1333 0010 13       		.byte	19
 1334 0011 E5       		.byte	-27
 1335 0012 14       		.byte	20
ARM GAS  C:\Users\hungv\AppData\Local\Temp\cckPIcAY.s 			page 51


 1336 0013 48       		.byte	72
 1337 0014 2C       		.byte	44
 1338 0015 0C       		.byte	12
 1339 0016 33       		.byte	51
 1340 0017 78       		.byte	120
 1341 0018 3A       		.byte	58
 1342 0019 33       		.byte	51
 1343 001a 3B       		.byte	59
 1344 001b FB       		.byte	-5
 1345 001c 3E       		.byte	62
 1346 001d 00       		.byte	0
 1347 001e 43       		.byte	67
 1348 001f 11       		.byte	17
 1349 0020 16       		.byte	22
 1350 0021 10       		.byte	16
 1351 0022 4A       		.byte	74
 1352 0023 81       		.byte	-127
 1353 0024 21       		.byte	33
 1354 0025 99       		.byte	-103
 1355 0026 24       		.byte	36
 1356 0027 40       		.byte	64
 1357 0028 25       		.byte	37
 1358 0029 38       		.byte	56
 1359 002a 26       		.byte	38
 1360 002b 82       		.byte	-126
 1361 002c 5C       		.byte	92
 1362 002d 00       		.byte	0
 1363 002e 63       		.byte	99
 1364 002f 00       		.byte	0
 1365 0030 46       		.byte	70
 1366 0031 3F       		.byte	63
 1367 0032 0C       		.byte	12
 1368 0033 3C       		.byte	60
 1369 0034 61       		.byte	97
 1370 0035 70       		.byte	112
 1371 0036 62       		.byte	98
 1372 0037 80       		.byte	-128
 1373 0038 7C       		.byte	124
 1374 0039 05       		.byte	5
 1375 003a 20       		.byte	32
 1376 003b 80       		.byte	-128
 1377 003c 28       		.byte	40
 1378 003d 30       		.byte	48
 1379 003e 6C       		.byte	108
 1380 003f 00       		.byte	0
 1381 0040 6D       		.byte	109
 1382 0041 80       		.byte	-128
 1383 0042 6E       		.byte	110
 1384 0043 00       		.byte	0
 1385 0044 70       		.byte	112
 1386 0045 02       		.byte	2
 1387 0046 71       		.byte	113
 1388 0047 94       		.byte	-108
 1389 0048 73       		.byte	115
 1390 0049 C1       		.byte	-63
 1391 004a 3D       		.byte	61
 1392 004b 34       		.byte	52
ARM GAS  C:\Users\hungv\AppData\Local\Temp\cckPIcAY.s 			page 52


 1393 004c 5A       		.byte	90
 1394 004d 57       		.byte	87
 1395 004e 12       		.byte	18
 1396 004f 00       		.byte	0
 1397 0050 11       		.byte	17
 1398 0051 00       		.byte	0
 1399 0052 17       		.byte	23
 1400 0053 11       		.byte	17
 1401 0054 18       		.byte	24
 1402 0055 75       		.byte	117
 1403 0056 19       		.byte	25
 1404 0057 01       		.byte	1
 1405 0058 1A       		.byte	26
 1406 0059 97       		.byte	-105
 1407 005a 32       		.byte	50
 1408 005b 36       		.byte	54
 1409 005c 03       		.byte	3
 1410 005d 0F       		.byte	15
 1411 005e 37       		.byte	55
 1412 005f 40       		.byte	64
 1413 0060 4F       		.byte	79
 1414 0061 BB       		.byte	-69
 1415 0062 50       		.byte	80
 1416 0063 9C       		.byte	-100
 1417 0064 5A       		.byte	90
 1418 0065 57       		.byte	87
 1419 0066 6D       		.byte	109
 1420 0067 80       		.byte	-128
 1421 0068 6D       		.byte	109
 1422 0069 38       		.byte	56
 1423 006a 39       		.byte	57
 1424 006b 02       		.byte	2
 1425 006c 35       		.byte	53
 1426 006d 88       		.byte	-120
 1427 006e 22       		.byte	34
 1428 006f 0A       		.byte	10
 1429 0070 37       		.byte	55
 1430 0071 40       		.byte	64
 1431 0072 23       		.byte	35
 1432 0073 00       		.byte	0
 1433 0074 34       		.byte	52
 1434 0075 A0       		.byte	-96
 1435 0076 36       		.byte	54
 1436 0077 1A       		.byte	26
 1437 0078 06       		.byte	6
 1438 0079 02       		.byte	2
 1439 007a 07       		.byte	7
 1440 007b C0       		.byte	-64
 1441 007c 0D       		.byte	13
 1442 007d B7       		.byte	-73
 1443 007e 0E       		.byte	14
 1444 007f 01       		.byte	1
 1445 0080 4C       		.byte	76
 1446 0081 00       		.byte	0
 1447 0082 FF       		.byte	-1
 1448 0083 00       		.byte	0
 1449 0084 E5       		.byte	-27
ARM GAS  C:\Users\hungv\AppData\Local\Temp\cckPIcAY.s 			page 53


 1450 0085 7F       		.byte	127
 1451 0086 F9       		.byte	-7
 1452 0087 C0       		.byte	-64
 1453 0088 41       		.byte	65
 1454 0089 24       		.byte	36
 1455 008a E0       		.byte	-32
 1456 008b 14       		.byte	20
 1457 008c 76       		.byte	118
 1458 008d FF       		.byte	-1
 1459 008e 33       		.byte	51
 1460 008f A0       		.byte	-96
 1461 0090 42       		.byte	66
 1462 0091 20       		.byte	32
 1463 0092 43       		.byte	67
 1464 0093 18       		.byte	24
 1465 0094 4C       		.byte	76
 1466 0095 00       		.byte	0
 1467 0096 87       		.byte	-121
 1468 0097 D0       		.byte	-48
 1469 0098 88       		.byte	-120
 1470 0099 3F       		.byte	63
 1471 009a D7       		.byte	-41
 1472 009b 03       		.byte	3
 1473 009c D9       		.byte	-39
 1474 009d 10       		.byte	16
 1475 009e D3       		.byte	-45
 1476 009f 82       		.byte	-126
 1477 00a0 C8       		.byte	-56
 1478 00a1 08       		.byte	8
 1479 00a2 C9       		.byte	-55
 1480 00a3 80       		.byte	-128
 1481 00a4 7D       		.byte	125
 1482 00a5 00       		.byte	0
 1483 00a6 7C       		.byte	124
 1484 00a7 03       		.byte	3
 1485 00a8 7D       		.byte	125
 1486 00a9 48       		.byte	72
 1487 00aa 7C       		.byte	124
 1488 00ab 08       		.byte	8
 1489 00ac 7D       		.byte	125
 1490 00ad 20       		.byte	32
 1491 00ae 7D       		.byte	125
 1492 00af 10       		.byte	16
 1493 00b0 7D       		.byte	125
 1494 00b1 0E       		.byte	14
 1495 00b2 90       		.byte	-112
 1496 00b3 00       		.byte	0
 1497 00b4 91       		.byte	-111
 1498 00b5 0E       		.byte	14
 1499 00b6 91       		.byte	-111
 1500 00b7 1A       		.byte	26
 1501 00b8 91       		.byte	-111
 1502 00b9 31       		.byte	49
 1503 00ba 91       		.byte	-111
 1504 00bb 5A       		.byte	90
 1505 00bc 91       		.byte	-111
 1506 00bd 69       		.byte	105
ARM GAS  C:\Users\hungv\AppData\Local\Temp\cckPIcAY.s 			page 54


 1507 00be 91       		.byte	-111
 1508 00bf 75       		.byte	117
 1509 00c0 91       		.byte	-111
 1510 00c1 7E       		.byte	126
 1511 00c2 91       		.byte	-111
 1512 00c3 88       		.byte	-120
 1513 00c4 91       		.byte	-111
 1514 00c5 8F       		.byte	-113
 1515 00c6 91       		.byte	-111
 1516 00c7 96       		.byte	-106
 1517 00c8 91       		.byte	-111
 1518 00c9 A3       		.byte	-93
 1519 00ca 91       		.byte	-111
 1520 00cb AF       		.byte	-81
 1521 00cc 91       		.byte	-111
 1522 00cd C4       		.byte	-60
 1523 00ce 91       		.byte	-111
 1524 00cf D7       		.byte	-41
 1525 00d0 91       		.byte	-111
 1526 00d1 E8       		.byte	-24
 1527 00d2 91       		.byte	-111
 1528 00d3 20       		.byte	32
 1529 00d4 92       		.byte	-110
 1530 00d5 00       		.byte	0
 1531 00d6 93       		.byte	-109
 1532 00d7 06       		.byte	6
 1533 00d8 93       		.byte	-109
 1534 00d9 E3       		.byte	-29
 1535 00da 93       		.byte	-109
 1536 00db 02       		.byte	2
 1537 00dc 93       		.byte	-109
 1538 00dd 02       		.byte	2
 1539 00de 93       		.byte	-109
 1540 00df 00       		.byte	0
 1541 00e0 93       		.byte	-109
 1542 00e1 04       		.byte	4
 1543 00e2 93       		.byte	-109
 1544 00e3 00       		.byte	0
 1545 00e4 93       		.byte	-109
 1546 00e5 03       		.byte	3
 1547 00e6 93       		.byte	-109
 1548 00e7 00       		.byte	0
 1549 00e8 93       		.byte	-109
 1550 00e9 00       		.byte	0
 1551 00ea 93       		.byte	-109
 1552 00eb 00       		.byte	0
 1553 00ec 93       		.byte	-109
 1554 00ed 00       		.byte	0
 1555 00ee 93       		.byte	-109
 1556 00ef 00       		.byte	0
 1557 00f0 93       		.byte	-109
 1558 00f1 00       		.byte	0
 1559 00f2 93       		.byte	-109
 1560 00f3 00       		.byte	0
 1561 00f4 96       		.byte	-106
 1562 00f5 00       		.byte	0
 1563 00f6 97       		.byte	-105
ARM GAS  C:\Users\hungv\AppData\Local\Temp\cckPIcAY.s 			page 55


 1564 00f7 08       		.byte	8
 1565 00f8 97       		.byte	-105
 1566 00f9 19       		.byte	25
 1567 00fa 97       		.byte	-105
 1568 00fb 02       		.byte	2
 1569 00fc 97       		.byte	-105
 1570 00fd 0C       		.byte	12
 1571 00fe 97       		.byte	-105
 1572 00ff 24       		.byte	36
 1573 0100 97       		.byte	-105
 1574 0101 30       		.byte	48
 1575 0102 97       		.byte	-105
 1576 0103 28       		.byte	40
 1577 0104 97       		.byte	-105
 1578 0105 26       		.byte	38
 1579 0106 97       		.byte	-105
 1580 0107 02       		.byte	2
 1581 0108 97       		.byte	-105
 1582 0109 98       		.byte	-104
 1583 010a 97       		.byte	-105
 1584 010b 80       		.byte	-128
 1585 010c 97       		.byte	-105
 1586 010d 00       		.byte	0
 1587 010e 97       		.byte	-105
 1588 010f 00       		.byte	0
 1589 0110 C3       		.byte	-61
 1590 0111 EF       		.byte	-17
 1591 0112 FF       		.byte	-1
 1592 0113 00       		.byte	0
 1593 0114 BA       		.byte	-70
 1594 0115 DC       		.byte	-36
 1595 0116 BB       		.byte	-69
 1596 0117 08       		.byte	8
 1597 0118 B6       		.byte	-74
 1598 0119 24       		.byte	36
 1599 011a B8       		.byte	-72
 1600 011b 33       		.byte	51
 1601 011c B7       		.byte	-73
 1602 011d 20       		.byte	32
 1603 011e B9       		.byte	-71
 1604 011f 30       		.byte	48
 1605 0120 B3       		.byte	-77
 1606 0121 B4       		.byte	-76
 1607 0122 B4       		.byte	-76
 1608 0123 CA       		.byte	-54
 1609 0124 B5       		.byte	-75
 1610 0125 43       		.byte	67
 1611 0126 B0       		.byte	-80
 1612 0127 5C       		.byte	92
 1613 0128 B1       		.byte	-79
 1614 0129 4F       		.byte	79
 1615 012a B2       		.byte	-78
 1616 012b 06       		.byte	6
 1617 012c C7       		.byte	-57
 1618 012d 00       		.byte	0
 1619 012e C6       		.byte	-58
 1620 012f 51       		.byte	81
ARM GAS  C:\Users\hungv\AppData\Local\Temp\cckPIcAY.s 			page 56


 1621 0130 C5       		.byte	-59
 1622 0131 11       		.byte	17
 1623 0132 C4       		.byte	-60
 1624 0133 9C       		.byte	-100
 1625 0134 BF       		.byte	-65
 1626 0135 00       		.byte	0
 1627 0136 BC       		.byte	-68
 1628 0137 64       		.byte	100
 1629 0138 A6       		.byte	-90
 1630 0139 00       		.byte	0
 1631 013a A7       		.byte	-89
 1632 013b 1E       		.byte	30
 1633 013c A7       		.byte	-89
 1634 013d 6B       		.byte	107
 1635 013e A7       		.byte	-89
 1636 013f 47       		.byte	71
 1637 0140 A7       		.byte	-89
 1638 0141 33       		.byte	51
 1639 0142 A7       		.byte	-89
 1640 0143 00       		.byte	0
 1641 0144 A7       		.byte	-89
 1642 0145 23       		.byte	35
 1643 0146 A7       		.byte	-89
 1644 0147 2E       		.byte	46
 1645 0148 A7       		.byte	-89
 1646 0149 85       		.byte	-123
 1647 014a A7       		.byte	-89
 1648 014b 42       		.byte	66
 1649 014c A7       		.byte	-89
 1650 014d 33       		.byte	51
 1651 014e A7       		.byte	-89
 1652 014f 00       		.byte	0
 1653 0150 A7       		.byte	-89
 1654 0151 23       		.byte	35
 1655 0152 A7       		.byte	-89
 1656 0153 1B       		.byte	27
 1657 0154 A7       		.byte	-89
 1658 0155 74       		.byte	116
 1659 0156 A7       		.byte	-89
 1660 0157 42       		.byte	66
 1661 0158 A7       		.byte	-89
 1662 0159 33       		.byte	51
 1663 015a A7       		.byte	-89
 1664 015b 00       		.byte	0
 1665 015c A7       		.byte	-89
 1666 015d 23       		.byte	35
 1667 015e C0       		.byte	-64
 1668 015f C8       		.byte	-56
 1669 0160 C1       		.byte	-63
 1670 0161 96       		.byte	-106
 1671 0162 8C       		.byte	-116
 1672 0163 00       		.byte	0
 1673 0164 86       		.byte	-122
 1674 0165 3D       		.byte	61
 1675 0166 50       		.byte	80
 1676 0167 92       		.byte	-110
 1677 0168 51       		.byte	81
ARM GAS  C:\Users\hungv\AppData\Local\Temp\cckPIcAY.s 			page 57


 1678 0169 90       		.byte	-112
 1679 016a 52       		.byte	82
 1680 016b 2C       		.byte	44
 1681 016c 53       		.byte	83
 1682 016d 00       		.byte	0
 1683 016e 54       		.byte	84
 1684 016f 00       		.byte	0
 1685 0170 55       		.byte	85
 1686 0171 88       		.byte	-120
 1687 0172 5A       		.byte	90
 1688 0173 50       		.byte	80
 1689 0174 5B       		.byte	91
 1690 0175 3C       		.byte	60
 1691 0176 5C       		.byte	92
 1692 0177 00       		.byte	0
 1693 0178 D3       		.byte	-45
 1694 0179 04       		.byte	4
 1695 017a 7F       		.byte	127
 1696 017b 00       		.byte	0
 1697 017c DA       		.byte	-38
 1698 017d 00       		.byte	0
 1699 017e E5       		.byte	-27
 1700 017f 1F       		.byte	31
 1701 0180 E1       		.byte	-31
 1702 0181 67       		.byte	103
 1703 0182 E0       		.byte	-32
 1704 0183 00       		.byte	0
 1705 0184 DD       		.byte	-35
 1706 0185 7F       		.byte	127
 1707 0186 05       		.byte	5
 1708 0187 00       		.byte	0
 1709 0188 FF       		.byte	-1
 1710 0189 00       		.byte	0
 1711 018a E0       		.byte	-32
 1712 018b 04       		.byte	4
 1713 018c C0       		.byte	-64
 1714 018d C8       		.byte	-56
 1715 018e C1       		.byte	-63
 1716 018f 96       		.byte	-106
 1717 0190 86       		.byte	-122
 1718 0191 3D       		.byte	61
 1719 0192 50       		.byte	80
 1720 0193 92       		.byte	-110
 1721 0194 51       		.byte	81
 1722 0195 90       		.byte	-112
 1723 0196 52       		.byte	82
 1724 0197 2C       		.byte	44
 1725 0198 53       		.byte	83
 1726 0199 00       		.byte	0
 1727 019a 54       		.byte	84
 1728 019b 00       		.byte	0
 1729 019c 55       		.byte	85
 1730 019d 88       		.byte	-120
 1731 019e 57       		.byte	87
 1732 019f 00       		.byte	0
 1733 01a0 5A       		.byte	90
 1734 01a1 28       		.byte	40
ARM GAS  C:\Users\hungv\AppData\Local\Temp\cckPIcAY.s 			page 58


 1735 01a2 5B       		.byte	91
 1736 01a3 1E       		.byte	30
 1737 01a4 5C       		.byte	92
 1738 01a5 00       		.byte	0
 1739 01a6 D3       		.byte	-45
 1740 01a7 08       		.byte	8
 1741 01a8 E0       		.byte	-32
 1742 01a9 00       		.byte	0
 1743 01aa FF       		.byte	-1
 1744 01ab 00       		.byte	0
 1745 01ac 05       		.byte	5
 1746 01ad 00       		.byte	0
 1747 01ae DA       		.byte	-38
 1748 01af 08       		.byte	8
 1749 01b0 DA       		.byte	-38
 1750 01b1 09       		.byte	9
 1751 01b2 98       		.byte	-104
 1752 01b3 00       		.byte	0
 1753 01b4 99       		.byte	-103
 1754 01b5 00       		.byte	0
 1755 01b6 00       		.byte	0
 1756 01b7 00       		.byte	0
 1757              		.section	.rodata.OV2640_QVGA,"a"
 1758              		.align	2
 1759              		.set	.LANCHOR1,. + 0
 1762              	OV2640_QVGA:
 1763 0000 FF       		.byte	-1
 1764 0001 00       		.byte	0
 1765 0002 2C       		.byte	44
 1766 0003 FF       		.byte	-1
 1767 0004 2E       		.byte	46
 1768 0005 DF       		.byte	-33
 1769 0006 FF       		.byte	-1
 1770 0007 01       		.byte	1
 1771 0008 3C       		.byte	60
 1772 0009 32       		.byte	50
 1773 000a 11       		.byte	17
 1774 000b 00       		.byte	0
 1775 000c 09       		.byte	9
 1776 000d 02       		.byte	2
 1777 000e 04       		.byte	4
 1778 000f A8       		.byte	-88
 1779 0010 13       		.byte	19
 1780 0011 E5       		.byte	-27
 1781 0012 14       		.byte	20
 1782 0013 48       		.byte	72
 1783 0014 2C       		.byte	44
 1784 0015 0C       		.byte	12
 1785 0016 33       		.byte	51
 1786 0017 78       		.byte	120
 1787 0018 3A       		.byte	58
 1788 0019 33       		.byte	51
 1789 001a 3B       		.byte	59
 1790 001b FB       		.byte	-5
 1791 001c 3E       		.byte	62
 1792 001d 00       		.byte	0
 1793 001e 43       		.byte	67
ARM GAS  C:\Users\hungv\AppData\Local\Temp\cckPIcAY.s 			page 59


 1794 001f 11       		.byte	17
 1795 0020 16       		.byte	22
 1796 0021 10       		.byte	16
 1797 0022 4A       		.byte	74
 1798 0023 81       		.byte	-127
 1799 0024 21       		.byte	33
 1800 0025 99       		.byte	-103
 1801 0026 24       		.byte	36
 1802 0027 40       		.byte	64
 1803 0028 25       		.byte	37
 1804 0029 38       		.byte	56
 1805 002a 26       		.byte	38
 1806 002b 82       		.byte	-126
 1807 002c 5C       		.byte	92
 1808 002d 00       		.byte	0
 1809 002e 63       		.byte	99
 1810 002f 00       		.byte	0
 1811 0030 46       		.byte	70
 1812 0031 3F       		.byte	63
 1813 0032 0C       		.byte	12
 1814 0033 3C       		.byte	60
 1815 0034 61       		.byte	97
 1816 0035 70       		.byte	112
 1817 0036 62       		.byte	98
 1818 0037 80       		.byte	-128
 1819 0038 7C       		.byte	124
 1820 0039 05       		.byte	5
 1821 003a 20       		.byte	32
 1822 003b 80       		.byte	-128
 1823 003c 28       		.byte	40
 1824 003d 30       		.byte	48
 1825 003e 6C       		.byte	108
 1826 003f 00       		.byte	0
 1827 0040 6D       		.byte	109
 1828 0041 80       		.byte	-128
 1829 0042 6E       		.byte	110
 1830 0043 00       		.byte	0
 1831 0044 70       		.byte	112
 1832 0045 02       		.byte	2
 1833 0046 71       		.byte	113
 1834 0047 94       		.byte	-108
 1835 0048 73       		.byte	115
 1836 0049 C1       		.byte	-63
 1837 004a 3D       		.byte	61
 1838 004b 34       		.byte	52
 1839 004c 5A       		.byte	90
 1840 004d 57       		.byte	87
 1841 004e 12       		.byte	18
 1842 004f 00       		.byte	0
 1843 0050 11       		.byte	17
 1844 0051 00       		.byte	0
 1845 0052 17       		.byte	23
 1846 0053 11       		.byte	17
 1847 0054 18       		.byte	24
 1848 0055 75       		.byte	117
 1849 0056 19       		.byte	25
 1850 0057 01       		.byte	1
ARM GAS  C:\Users\hungv\AppData\Local\Temp\cckPIcAY.s 			page 60


 1851 0058 1A       		.byte	26
 1852 0059 97       		.byte	-105
 1853 005a 32       		.byte	50
 1854 005b 36       		.byte	54
 1855 005c 03       		.byte	3
 1856 005d 0F       		.byte	15
 1857 005e 37       		.byte	55
 1858 005f 40       		.byte	64
 1859 0060 4F       		.byte	79
 1860 0061 BB       		.byte	-69
 1861 0062 50       		.byte	80
 1862 0063 9C       		.byte	-100
 1863 0064 5A       		.byte	90
 1864 0065 57       		.byte	87
 1865 0066 6D       		.byte	109
 1866 0067 80       		.byte	-128
 1867 0068 6D       		.byte	109
 1868 0069 38       		.byte	56
 1869 006a 39       		.byte	57
 1870 006b 02       		.byte	2
 1871 006c 35       		.byte	53
 1872 006d 88       		.byte	-120
 1873 006e 22       		.byte	34
 1874 006f 0A       		.byte	10
 1875 0070 37       		.byte	55
 1876 0071 40       		.byte	64
 1877 0072 23       		.byte	35
 1878 0073 00       		.byte	0
 1879 0074 34       		.byte	52
 1880 0075 A0       		.byte	-96
 1881 0076 36       		.byte	54
 1882 0077 1A       		.byte	26
 1883 0078 06       		.byte	6
 1884 0079 02       		.byte	2
 1885 007a 07       		.byte	7
 1886 007b C0       		.byte	-64
 1887 007c 0D       		.byte	13
 1888 007d B7       		.byte	-73
 1889 007e 0E       		.byte	14
 1890 007f 01       		.byte	1
 1891 0080 4C       		.byte	76
 1892 0081 00       		.byte	0
 1893 0082 FF       		.byte	-1
 1894 0083 00       		.byte	0
 1895 0084 E5       		.byte	-27
 1896 0085 7F       		.byte	127
 1897 0086 F9       		.byte	-7
 1898 0087 C0       		.byte	-64
 1899 0088 41       		.byte	65
 1900 0089 24       		.byte	36
 1901 008a E0       		.byte	-32
 1902 008b 14       		.byte	20
 1903 008c 76       		.byte	118
 1904 008d FF       		.byte	-1
 1905 008e 33       		.byte	51
 1906 008f A0       		.byte	-96
 1907 0090 42       		.byte	66
ARM GAS  C:\Users\hungv\AppData\Local\Temp\cckPIcAY.s 			page 61


 1908 0091 20       		.byte	32
 1909 0092 43       		.byte	67
 1910 0093 18       		.byte	24
 1911 0094 4C       		.byte	76
 1912 0095 00       		.byte	0
 1913 0096 87       		.byte	-121
 1914 0097 D0       		.byte	-48
 1915 0098 88       		.byte	-120
 1916 0099 3F       		.byte	63
 1917 009a D7       		.byte	-41
 1918 009b 03       		.byte	3
 1919 009c D9       		.byte	-39
 1920 009d 10       		.byte	16
 1921 009e D3       		.byte	-45
 1922 009f 82       		.byte	-126
 1923 00a0 C8       		.byte	-56
 1924 00a1 08       		.byte	8
 1925 00a2 C9       		.byte	-55
 1926 00a3 80       		.byte	-128
 1927 00a4 7D       		.byte	125
 1928 00a5 00       		.byte	0
 1929 00a6 7C       		.byte	124
 1930 00a7 03       		.byte	3
 1931 00a8 7D       		.byte	125
 1932 00a9 48       		.byte	72
 1933 00aa 7C       		.byte	124
 1934 00ab 08       		.byte	8
 1935 00ac 7D       		.byte	125
 1936 00ad 20       		.byte	32
 1937 00ae 7D       		.byte	125
 1938 00af 10       		.byte	16
 1939 00b0 7D       		.byte	125
 1940 00b1 0E       		.byte	14
 1941 00b2 90       		.byte	-112
 1942 00b3 00       		.byte	0
 1943 00b4 91       		.byte	-111
 1944 00b5 0E       		.byte	14
 1945 00b6 91       		.byte	-111
 1946 00b7 1A       		.byte	26
 1947 00b8 91       		.byte	-111
 1948 00b9 31       		.byte	49
 1949 00ba 91       		.byte	-111
 1950 00bb 5A       		.byte	90
 1951 00bc 91       		.byte	-111
 1952 00bd 69       		.byte	105
 1953 00be 91       		.byte	-111
 1954 00bf 75       		.byte	117
 1955 00c0 91       		.byte	-111
 1956 00c1 7E       		.byte	126
 1957 00c2 91       		.byte	-111
 1958 00c3 88       		.byte	-120
 1959 00c4 91       		.byte	-111
 1960 00c5 8F       		.byte	-113
 1961 00c6 91       		.byte	-111
 1962 00c7 96       		.byte	-106
 1963 00c8 91       		.byte	-111
 1964 00c9 A3       		.byte	-93
ARM GAS  C:\Users\hungv\AppData\Local\Temp\cckPIcAY.s 			page 62


 1965 00ca 91       		.byte	-111
 1966 00cb AF       		.byte	-81
 1967 00cc 91       		.byte	-111
 1968 00cd C4       		.byte	-60
 1969 00ce 91       		.byte	-111
 1970 00cf D7       		.byte	-41
 1971 00d0 91       		.byte	-111
 1972 00d1 E8       		.byte	-24
 1973 00d2 91       		.byte	-111
 1974 00d3 20       		.byte	32
 1975 00d4 92       		.byte	-110
 1976 00d5 00       		.byte	0
 1977 00d6 93       		.byte	-109
 1978 00d7 06       		.byte	6
 1979 00d8 93       		.byte	-109
 1980 00d9 E3       		.byte	-29
 1981 00da 93       		.byte	-109
 1982 00db 02       		.byte	2
 1983 00dc 93       		.byte	-109
 1984 00dd 02       		.byte	2
 1985 00de 93       		.byte	-109
 1986 00df 00       		.byte	0
 1987 00e0 93       		.byte	-109
 1988 00e1 04       		.byte	4
 1989 00e2 93       		.byte	-109
 1990 00e3 00       		.byte	0
 1991 00e4 93       		.byte	-109
 1992 00e5 03       		.byte	3
 1993 00e6 93       		.byte	-109
 1994 00e7 00       		.byte	0
 1995 00e8 93       		.byte	-109
 1996 00e9 00       		.byte	0
 1997 00ea 93       		.byte	-109
 1998 00eb 00       		.byte	0
 1999 00ec 93       		.byte	-109
 2000 00ed 00       		.byte	0
 2001 00ee 93       		.byte	-109
 2002 00ef 00       		.byte	0
 2003 00f0 93       		.byte	-109
 2004 00f1 00       		.byte	0
 2005 00f2 93       		.byte	-109
 2006 00f3 00       		.byte	0
 2007 00f4 96       		.byte	-106
 2008 00f5 00       		.byte	0
 2009 00f6 97       		.byte	-105
 2010 00f7 08       		.byte	8
 2011 00f8 97       		.byte	-105
 2012 00f9 19       		.byte	25
 2013 00fa 97       		.byte	-105
 2014 00fb 02       		.byte	2
 2015 00fc 97       		.byte	-105
 2016 00fd 0C       		.byte	12
 2017 00fe 97       		.byte	-105
 2018 00ff 24       		.byte	36
 2019 0100 97       		.byte	-105
 2020 0101 30       		.byte	48
 2021 0102 97       		.byte	-105
ARM GAS  C:\Users\hungv\AppData\Local\Temp\cckPIcAY.s 			page 63


 2022 0103 28       		.byte	40
 2023 0104 97       		.byte	-105
 2024 0105 26       		.byte	38
 2025 0106 97       		.byte	-105
 2026 0107 02       		.byte	2
 2027 0108 97       		.byte	-105
 2028 0109 98       		.byte	-104
 2029 010a 97       		.byte	-105
 2030 010b 80       		.byte	-128
 2031 010c 97       		.byte	-105
 2032 010d 00       		.byte	0
 2033 010e 97       		.byte	-105
 2034 010f 00       		.byte	0
 2035 0110 C3       		.byte	-61
 2036 0111 EF       		.byte	-17
 2037 0112 FF       		.byte	-1
 2038 0113 00       		.byte	0
 2039 0114 BA       		.byte	-70
 2040 0115 DC       		.byte	-36
 2041 0116 BB       		.byte	-69
 2042 0117 08       		.byte	8
 2043 0118 B6       		.byte	-74
 2044 0119 24       		.byte	36
 2045 011a B8       		.byte	-72
 2046 011b 33       		.byte	51
 2047 011c B7       		.byte	-73
 2048 011d 20       		.byte	32
 2049 011e B9       		.byte	-71
 2050 011f 30       		.byte	48
 2051 0120 B3       		.byte	-77
 2052 0121 B4       		.byte	-76
 2053 0122 B4       		.byte	-76
 2054 0123 CA       		.byte	-54
 2055 0124 B5       		.byte	-75
 2056 0125 43       		.byte	67
 2057 0126 B0       		.byte	-80
 2058 0127 5C       		.byte	92
 2059 0128 B1       		.byte	-79
 2060 0129 4F       		.byte	79
 2061 012a B2       		.byte	-78
 2062 012b 06       		.byte	6
 2063 012c C7       		.byte	-57
 2064 012d 00       		.byte	0
 2065 012e C6       		.byte	-58
 2066 012f 51       		.byte	81
 2067 0130 C5       		.byte	-59
 2068 0131 11       		.byte	17
 2069 0132 C4       		.byte	-60
 2070 0133 9C       		.byte	-100
 2071 0134 BF       		.byte	-65
 2072 0135 00       		.byte	0
 2073 0136 BC       		.byte	-68
 2074 0137 64       		.byte	100
 2075 0138 A6       		.byte	-90
 2076 0139 00       		.byte	0
 2077 013a A7       		.byte	-89
 2078 013b 1E       		.byte	30
ARM GAS  C:\Users\hungv\AppData\Local\Temp\cckPIcAY.s 			page 64


 2079 013c A7       		.byte	-89
 2080 013d 6B       		.byte	107
 2081 013e A7       		.byte	-89
 2082 013f 47       		.byte	71
 2083 0140 A7       		.byte	-89
 2084 0141 33       		.byte	51
 2085 0142 A7       		.byte	-89
 2086 0143 00       		.byte	0
 2087 0144 A7       		.byte	-89
 2088 0145 23       		.byte	35
 2089 0146 A7       		.byte	-89
 2090 0147 2E       		.byte	46
 2091 0148 A7       		.byte	-89
 2092 0149 85       		.byte	-123
 2093 014a A7       		.byte	-89
 2094 014b 42       		.byte	66
 2095 014c A7       		.byte	-89
 2096 014d 33       		.byte	51
 2097 014e A7       		.byte	-89
 2098 014f 00       		.byte	0
 2099 0150 A7       		.byte	-89
 2100 0151 23       		.byte	35
 2101 0152 A7       		.byte	-89
 2102 0153 1B       		.byte	27
 2103 0154 A7       		.byte	-89
 2104 0155 74       		.byte	116
 2105 0156 A7       		.byte	-89
 2106 0157 42       		.byte	66
 2107 0158 A7       		.byte	-89
 2108 0159 33       		.byte	51
 2109 015a A7       		.byte	-89
 2110 015b 00       		.byte	0
 2111 015c A7       		.byte	-89
 2112 015d 23       		.byte	35
 2113 015e C0       		.byte	-64
 2114 015f C8       		.byte	-56
 2115 0160 C1       		.byte	-63
 2116 0161 96       		.byte	-106
 2117 0162 8C       		.byte	-116
 2118 0163 00       		.byte	0
 2119 0164 86       		.byte	-122
 2120 0165 3D       		.byte	61
 2121 0166 50       		.byte	80
 2122 0167 92       		.byte	-110
 2123 0168 51       		.byte	81
 2124 0169 90       		.byte	-112
 2125 016a 52       		.byte	82
 2126 016b 2C       		.byte	44
 2127 016c 53       		.byte	83
 2128 016d 00       		.byte	0
 2129 016e 54       		.byte	84
 2130 016f 00       		.byte	0
 2131 0170 55       		.byte	85
 2132 0171 88       		.byte	-120
 2133 0172 5A       		.byte	90
 2134 0173 50       		.byte	80
 2135 0174 5B       		.byte	91
ARM GAS  C:\Users\hungv\AppData\Local\Temp\cckPIcAY.s 			page 65


 2136 0175 3C       		.byte	60
 2137 0176 5C       		.byte	92
 2138 0177 00       		.byte	0
 2139 0178 D3       		.byte	-45
 2140 0179 04       		.byte	4
 2141 017a 7F       		.byte	127
 2142 017b 00       		.byte	0
 2143 017c DA       		.byte	-38
 2144 017d 00       		.byte	0
 2145 017e E5       		.byte	-27
 2146 017f 1F       		.byte	31
 2147 0180 E1       		.byte	-31
 2148 0181 67       		.byte	103
 2149 0182 E0       		.byte	-32
 2150 0183 00       		.byte	0
 2151 0184 DD       		.byte	-35
 2152 0185 7F       		.byte	127
 2153 0186 05       		.byte	5
 2154 0187 00       		.byte	0
 2155 0188 FF       		.byte	-1
 2156 0189 00       		.byte	0
 2157 018a E0       		.byte	-32
 2158 018b 04       		.byte	4
 2159 018c C0       		.byte	-64
 2160 018d C8       		.byte	-56
 2161 018e C1       		.byte	-63
 2162 018f 96       		.byte	-106
 2163 0190 86       		.byte	-122
 2164 0191 3D       		.byte	61
 2165 0192 50       		.byte	80
 2166 0193 92       		.byte	-110
 2167 0194 51       		.byte	81
 2168 0195 90       		.byte	-112
 2169 0196 52       		.byte	82
 2170 0197 2C       		.byte	44
 2171 0198 53       		.byte	83
 2172 0199 00       		.byte	0
 2173 019a 54       		.byte	84
 2174 019b 00       		.byte	0
 2175 019c 55       		.byte	85
 2176 019d 88       		.byte	-120
 2177 019e 57       		.byte	87
 2178 019f 00       		.byte	0
 2179 01a0 5A       		.byte	90
 2180 01a1 50       		.byte	80
 2181 01a2 5B       		.byte	91
 2182 01a3 3C       		.byte	60
 2183 01a4 5C       		.byte	92
 2184 01a5 00       		.byte	0
 2185 01a6 D3       		.byte	-45
 2186 01a7 08       		.byte	8
 2187 01a8 E0       		.byte	-32
 2188 01a9 00       		.byte	0
 2189 01aa FF       		.byte	-1
 2190 01ab 00       		.byte	0
 2191 01ac 05       		.byte	5
 2192 01ad 00       		.byte	0
ARM GAS  C:\Users\hungv\AppData\Local\Temp\cckPIcAY.s 			page 66


 2193 01ae DA       		.byte	-38
 2194 01af 08       		.byte	8
 2195 01b0 DA       		.byte	-38
 2196 01b1 09       		.byte	9
 2197 01b2 98       		.byte	-104
 2198 01b3 00       		.byte	0
 2199 01b4 99       		.byte	-103
 2200 01b5 00       		.byte	0
 2201 01b6 00       		.byte	0
 2202 01b7 00       		.byte	0
 2203              		.section	.rodata.OV2640_VGA,"a"
 2204              		.align	2
 2205              		.set	.LANCHOR3,. + 0
 2208              	OV2640_VGA:
 2209 0000 FF       		.byte	-1
 2210 0001 00       		.byte	0
 2211 0002 2C       		.byte	44
 2212 0003 FF       		.byte	-1
 2213 0004 2E       		.byte	46
 2214 0005 DF       		.byte	-33
 2215 0006 FF       		.byte	-1
 2216 0007 01       		.byte	1
 2217 0008 3C       		.byte	60
 2218 0009 32       		.byte	50
 2219 000a 11       		.byte	17
 2220 000b 00       		.byte	0
 2221 000c 09       		.byte	9
 2222 000d 02       		.byte	2
 2223 000e 04       		.byte	4
 2224 000f A8       		.byte	-88
 2225 0010 13       		.byte	19
 2226 0011 E5       		.byte	-27
 2227 0012 14       		.byte	20
 2228 0013 48       		.byte	72
 2229 0014 2C       		.byte	44
 2230 0015 0C       		.byte	12
 2231 0016 33       		.byte	51
 2232 0017 78       		.byte	120
 2233 0018 3A       		.byte	58
 2234 0019 33       		.byte	51
 2235 001a 3B       		.byte	59
 2236 001b FB       		.byte	-5
 2237 001c 3E       		.byte	62
 2238 001d 00       		.byte	0
 2239 001e 43       		.byte	67
 2240 001f 11       		.byte	17
 2241 0020 16       		.byte	22
 2242 0021 10       		.byte	16
 2243 0022 4A       		.byte	74
 2244 0023 81       		.byte	-127
 2245 0024 21       		.byte	33
 2246 0025 99       		.byte	-103
 2247 0026 24       		.byte	36
 2248 0027 40       		.byte	64
 2249 0028 25       		.byte	37
 2250 0029 38       		.byte	56
 2251 002a 26       		.byte	38
ARM GAS  C:\Users\hungv\AppData\Local\Temp\cckPIcAY.s 			page 67


 2252 002b 82       		.byte	-126
 2253 002c 5C       		.byte	92
 2254 002d 00       		.byte	0
 2255 002e 63       		.byte	99
 2256 002f 00       		.byte	0
 2257 0030 46       		.byte	70
 2258 0031 3F       		.byte	63
 2259 0032 0C       		.byte	12
 2260 0033 3C       		.byte	60
 2261 0034 61       		.byte	97
 2262 0035 70       		.byte	112
 2263 0036 62       		.byte	98
 2264 0037 80       		.byte	-128
 2265 0038 7C       		.byte	124
 2266 0039 05       		.byte	5
 2267 003a 20       		.byte	32
 2268 003b 80       		.byte	-128
 2269 003c 28       		.byte	40
 2270 003d 30       		.byte	48
 2271 003e 6C       		.byte	108
 2272 003f 00       		.byte	0
 2273 0040 6D       		.byte	109
 2274 0041 80       		.byte	-128
 2275 0042 6E       		.byte	110
 2276 0043 00       		.byte	0
 2277 0044 70       		.byte	112
 2278 0045 02       		.byte	2
 2279 0046 71       		.byte	113
 2280 0047 94       		.byte	-108
 2281 0048 73       		.byte	115
 2282 0049 C1       		.byte	-63
 2283 004a 3D       		.byte	61
 2284 004b 34       		.byte	52
 2285 004c 5A       		.byte	90
 2286 004d 57       		.byte	87
 2287 004e 12       		.byte	18
 2288 004f 00       		.byte	0
 2289 0050 11       		.byte	17
 2290 0051 00       		.byte	0
 2291 0052 17       		.byte	23
 2292 0053 11       		.byte	17
 2293 0054 18       		.byte	24
 2294 0055 75       		.byte	117
 2295 0056 19       		.byte	25
 2296 0057 01       		.byte	1
 2297 0058 1A       		.byte	26
 2298 0059 97       		.byte	-105
 2299 005a 32       		.byte	50
 2300 005b 36       		.byte	54
 2301 005c 03       		.byte	3
 2302 005d 0F       		.byte	15
 2303 005e 37       		.byte	55
 2304 005f 40       		.byte	64
 2305 0060 4F       		.byte	79
 2306 0061 BB       		.byte	-69
 2307 0062 50       		.byte	80
 2308 0063 9C       		.byte	-100
ARM GAS  C:\Users\hungv\AppData\Local\Temp\cckPIcAY.s 			page 68


 2309 0064 5A       		.byte	90
 2310 0065 57       		.byte	87
 2311 0066 6D       		.byte	109
 2312 0067 80       		.byte	-128
 2313 0068 6D       		.byte	109
 2314 0069 38       		.byte	56
 2315 006a 39       		.byte	57
 2316 006b 02       		.byte	2
 2317 006c 35       		.byte	53
 2318 006d 88       		.byte	-120
 2319 006e 22       		.byte	34
 2320 006f 0A       		.byte	10
 2321 0070 37       		.byte	55
 2322 0071 40       		.byte	64
 2323 0072 23       		.byte	35
 2324 0073 00       		.byte	0
 2325 0074 34       		.byte	52
 2326 0075 A0       		.byte	-96
 2327 0076 36       		.byte	54
 2328 0077 1A       		.byte	26
 2329 0078 06       		.byte	6
 2330 0079 02       		.byte	2
 2331 007a 07       		.byte	7
 2332 007b C0       		.byte	-64
 2333 007c 0D       		.byte	13
 2334 007d B7       		.byte	-73
 2335 007e 0E       		.byte	14
 2336 007f 01       		.byte	1
 2337 0080 4C       		.byte	76
 2338 0081 00       		.byte	0
 2339 0082 FF       		.byte	-1
 2340 0083 00       		.byte	0
 2341 0084 E5       		.byte	-27
 2342 0085 7F       		.byte	127
 2343 0086 F9       		.byte	-7
 2344 0087 C0       		.byte	-64
 2345 0088 41       		.byte	65
 2346 0089 24       		.byte	36
 2347 008a E0       		.byte	-32
 2348 008b 14       		.byte	20
 2349 008c 76       		.byte	118
 2350 008d FF       		.byte	-1
 2351 008e 33       		.byte	51
 2352 008f A0       		.byte	-96
 2353 0090 42       		.byte	66
 2354 0091 20       		.byte	32
 2355 0092 43       		.byte	67
 2356 0093 18       		.byte	24
 2357 0094 4C       		.byte	76
 2358 0095 00       		.byte	0
 2359 0096 87       		.byte	-121
 2360 0097 D0       		.byte	-48
 2361 0098 88       		.byte	-120
 2362 0099 3F       		.byte	63
 2363 009a D7       		.byte	-41
 2364 009b 03       		.byte	3
 2365 009c D9       		.byte	-39
ARM GAS  C:\Users\hungv\AppData\Local\Temp\cckPIcAY.s 			page 69


 2366 009d 10       		.byte	16
 2367 009e D3       		.byte	-45
 2368 009f 82       		.byte	-126
 2369 00a0 C8       		.byte	-56
 2370 00a1 08       		.byte	8
 2371 00a2 C9       		.byte	-55
 2372 00a3 80       		.byte	-128
 2373 00a4 7D       		.byte	125
 2374 00a5 00       		.byte	0
 2375 00a6 7C       		.byte	124
 2376 00a7 03       		.byte	3
 2377 00a8 7D       		.byte	125
 2378 00a9 48       		.byte	72
 2379 00aa 7C       		.byte	124
 2380 00ab 08       		.byte	8
 2381 00ac 7D       		.byte	125
 2382 00ad 20       		.byte	32
 2383 00ae 7D       		.byte	125
 2384 00af 10       		.byte	16
 2385 00b0 7D       		.byte	125
 2386 00b1 0E       		.byte	14
 2387 00b2 90       		.byte	-112
 2388 00b3 00       		.byte	0
 2389 00b4 91       		.byte	-111
 2390 00b5 0E       		.byte	14
 2391 00b6 91       		.byte	-111
 2392 00b7 1A       		.byte	26
 2393 00b8 91       		.byte	-111
 2394 00b9 31       		.byte	49
 2395 00ba 91       		.byte	-111
 2396 00bb 5A       		.byte	90
 2397 00bc 91       		.byte	-111
 2398 00bd 69       		.byte	105
 2399 00be 91       		.byte	-111
 2400 00bf 75       		.byte	117
 2401 00c0 91       		.byte	-111
 2402 00c1 7E       		.byte	126
 2403 00c2 91       		.byte	-111
 2404 00c3 88       		.byte	-120
 2405 00c4 91       		.byte	-111
 2406 00c5 8F       		.byte	-113
 2407 00c6 91       		.byte	-111
 2408 00c7 96       		.byte	-106
 2409 00c8 91       		.byte	-111
 2410 00c9 A3       		.byte	-93
 2411 00ca 91       		.byte	-111
 2412 00cb AF       		.byte	-81
 2413 00cc 91       		.byte	-111
 2414 00cd C4       		.byte	-60
 2415 00ce 91       		.byte	-111
 2416 00cf D7       		.byte	-41
 2417 00d0 91       		.byte	-111
 2418 00d1 E8       		.byte	-24
 2419 00d2 91       		.byte	-111
 2420 00d3 20       		.byte	32
 2421 00d4 92       		.byte	-110
 2422 00d5 00       		.byte	0
ARM GAS  C:\Users\hungv\AppData\Local\Temp\cckPIcAY.s 			page 70


 2423 00d6 93       		.byte	-109
 2424 00d7 06       		.byte	6
 2425 00d8 93       		.byte	-109
 2426 00d9 E3       		.byte	-29
 2427 00da 93       		.byte	-109
 2428 00db 02       		.byte	2
 2429 00dc 93       		.byte	-109
 2430 00dd 02       		.byte	2
 2431 00de 93       		.byte	-109
 2432 00df 00       		.byte	0
 2433 00e0 93       		.byte	-109
 2434 00e1 04       		.byte	4
 2435 00e2 93       		.byte	-109
 2436 00e3 00       		.byte	0
 2437 00e4 93       		.byte	-109
 2438 00e5 03       		.byte	3
 2439 00e6 93       		.byte	-109
 2440 00e7 00       		.byte	0
 2441 00e8 93       		.byte	-109
 2442 00e9 00       		.byte	0
 2443 00ea 93       		.byte	-109
 2444 00eb 00       		.byte	0
 2445 00ec 93       		.byte	-109
 2446 00ed 00       		.byte	0
 2447 00ee 93       		.byte	-109
 2448 00ef 00       		.byte	0
 2449 00f0 93       		.byte	-109
 2450 00f1 00       		.byte	0
 2451 00f2 93       		.byte	-109
 2452 00f3 00       		.byte	0
 2453 00f4 96       		.byte	-106
 2454 00f5 00       		.byte	0
 2455 00f6 97       		.byte	-105
 2456 00f7 08       		.byte	8
 2457 00f8 97       		.byte	-105
 2458 00f9 19       		.byte	25
 2459 00fa 97       		.byte	-105
 2460 00fb 02       		.byte	2
 2461 00fc 97       		.byte	-105
 2462 00fd 0C       		.byte	12
 2463 00fe 97       		.byte	-105
 2464 00ff 24       		.byte	36
 2465 0100 97       		.byte	-105
 2466 0101 30       		.byte	48
 2467 0102 97       		.byte	-105
 2468 0103 28       		.byte	40
 2469 0104 97       		.byte	-105
 2470 0105 26       		.byte	38
 2471 0106 97       		.byte	-105
 2472 0107 02       		.byte	2
 2473 0108 97       		.byte	-105
 2474 0109 98       		.byte	-104
 2475 010a 97       		.byte	-105
 2476 010b 80       		.byte	-128
 2477 010c 97       		.byte	-105
 2478 010d 00       		.byte	0
 2479 010e 97       		.byte	-105
ARM GAS  C:\Users\hungv\AppData\Local\Temp\cckPIcAY.s 			page 71


 2480 010f 00       		.byte	0
 2481 0110 C3       		.byte	-61
 2482 0111 EF       		.byte	-17
 2483 0112 FF       		.byte	-1
 2484 0113 00       		.byte	0
 2485 0114 BA       		.byte	-70
 2486 0115 DC       		.byte	-36
 2487 0116 BB       		.byte	-69
 2488 0117 08       		.byte	8
 2489 0118 B6       		.byte	-74
 2490 0119 24       		.byte	36
 2491 011a B8       		.byte	-72
 2492 011b 33       		.byte	51
 2493 011c B7       		.byte	-73
 2494 011d 20       		.byte	32
 2495 011e B9       		.byte	-71
 2496 011f 30       		.byte	48
 2497 0120 B3       		.byte	-77
 2498 0121 B4       		.byte	-76
 2499 0122 B4       		.byte	-76
 2500 0123 CA       		.byte	-54
 2501 0124 B5       		.byte	-75
 2502 0125 43       		.byte	67
 2503 0126 B0       		.byte	-80
 2504 0127 5C       		.byte	92
 2505 0128 B1       		.byte	-79
 2506 0129 4F       		.byte	79
 2507 012a B2       		.byte	-78
 2508 012b 06       		.byte	6
 2509 012c C7       		.byte	-57
 2510 012d 00       		.byte	0
 2511 012e C6       		.byte	-58
 2512 012f 51       		.byte	81
 2513 0130 C5       		.byte	-59
 2514 0131 11       		.byte	17
 2515 0132 C4       		.byte	-60
 2516 0133 9C       		.byte	-100
 2517 0134 BF       		.byte	-65
 2518 0135 00       		.byte	0
 2519 0136 BC       		.byte	-68
 2520 0137 64       		.byte	100
 2521 0138 A6       		.byte	-90
 2522 0139 00       		.byte	0
 2523 013a A7       		.byte	-89
 2524 013b 1E       		.byte	30
 2525 013c A7       		.byte	-89
 2526 013d 6B       		.byte	107
 2527 013e A7       		.byte	-89
 2528 013f 47       		.byte	71
 2529 0140 A7       		.byte	-89
 2530 0141 33       		.byte	51
 2531 0142 A7       		.byte	-89
 2532 0143 00       		.byte	0
 2533 0144 A7       		.byte	-89
 2534 0145 23       		.byte	35
 2535 0146 A7       		.byte	-89
 2536 0147 2E       		.byte	46
ARM GAS  C:\Users\hungv\AppData\Local\Temp\cckPIcAY.s 			page 72


 2537 0148 A7       		.byte	-89
 2538 0149 85       		.byte	-123
 2539 014a A7       		.byte	-89
 2540 014b 42       		.byte	66
 2541 014c A7       		.byte	-89
 2542 014d 33       		.byte	51
 2543 014e A7       		.byte	-89
 2544 014f 00       		.byte	0
 2545 0150 A7       		.byte	-89
 2546 0151 23       		.byte	35
 2547 0152 A7       		.byte	-89
 2548 0153 1B       		.byte	27
 2549 0154 A7       		.byte	-89
 2550 0155 74       		.byte	116
 2551 0156 A7       		.byte	-89
 2552 0157 42       		.byte	66
 2553 0158 A7       		.byte	-89
 2554 0159 33       		.byte	51
 2555 015a A7       		.byte	-89
 2556 015b 00       		.byte	0
 2557 015c A7       		.byte	-89
 2558 015d 23       		.byte	35
 2559 015e C0       		.byte	-64
 2560 015f C8       		.byte	-56
 2561 0160 C1       		.byte	-63
 2562 0161 96       		.byte	-106
 2563 0162 8C       		.byte	-116
 2564 0163 00       		.byte	0
 2565 0164 86       		.byte	-122
 2566 0165 3D       		.byte	61
 2567 0166 50       		.byte	80
 2568 0167 92       		.byte	-110
 2569 0168 51       		.byte	81
 2570 0169 90       		.byte	-112
 2571 016a 52       		.byte	82
 2572 016b 2C       		.byte	44
 2573 016c 53       		.byte	83
 2574 016d 00       		.byte	0
 2575 016e 54       		.byte	84
 2576 016f 00       		.byte	0
 2577 0170 55       		.byte	85
 2578 0171 88       		.byte	-120
 2579 0172 5A       		.byte	90
 2580 0173 50       		.byte	80
 2581 0174 5B       		.byte	91
 2582 0175 3C       		.byte	60
 2583 0176 5C       		.byte	92
 2584 0177 00       		.byte	0
 2585 0178 D3       		.byte	-45
 2586 0179 04       		.byte	4
 2587 017a 7F       		.byte	127
 2588 017b 00       		.byte	0
 2589 017c DA       		.byte	-38
 2590 017d 00       		.byte	0
 2591 017e E5       		.byte	-27
 2592 017f 1F       		.byte	31
 2593 0180 E1       		.byte	-31
ARM GAS  C:\Users\hungv\AppData\Local\Temp\cckPIcAY.s 			page 73


 2594 0181 67       		.byte	103
 2595 0182 E0       		.byte	-32
 2596 0183 00       		.byte	0
 2597 0184 DD       		.byte	-35
 2598 0185 7F       		.byte	127
 2599 0186 05       		.byte	5
 2600 0187 00       		.byte	0
 2601 0188 FF       		.byte	-1
 2602 0189 00       		.byte	0
 2603 018a E0       		.byte	-32
 2604 018b 04       		.byte	4
 2605 018c C0       		.byte	-64
 2606 018d C8       		.byte	-56
 2607 018e C1       		.byte	-63
 2608 018f 96       		.byte	-106
 2609 0190 86       		.byte	-122
 2610 0191 3D       		.byte	61
 2611 0192 50       		.byte	80
 2612 0193 92       		.byte	-110
 2613 0194 51       		.byte	81
 2614 0195 90       		.byte	-112
 2615 0196 52       		.byte	82
 2616 0197 2C       		.byte	44
 2617 0198 53       		.byte	83
 2618 0199 00       		.byte	0
 2619 019a 54       		.byte	84
 2620 019b 00       		.byte	0
 2621 019c 55       		.byte	85
 2622 019d 88       		.byte	-120
 2623 019e 57       		.byte	87
 2624 019f 00       		.byte	0
 2625 01a0 5A       		.byte	90
 2626 01a1 50       		.byte	80
 2627 01a2 5B       		.byte	91
 2628 01a3 3C       		.byte	60
 2629 01a4 5C       		.byte	92
 2630 01a5 00       		.byte	0
 2631 01a6 D3       		.byte	-45
 2632 01a7 04       		.byte	4
 2633 01a8 E0       		.byte	-32
 2634 01a9 00       		.byte	0
 2635 01aa FF       		.byte	-1
 2636 01ab 00       		.byte	0
 2637 01ac 05       		.byte	5
 2638 01ad 00       		.byte	0
 2639 01ae DA       		.byte	-38
 2640 01af 08       		.byte	8
 2641 01b0 DA       		.byte	-38
 2642 01b1 09       		.byte	9
 2643 01b2 98       		.byte	-104
 2644 01b3 00       		.byte	0
 2645 01b4 99       		.byte	-103
 2646 01b5 00       		.byte	0
 2647 01b6 00       		.byte	0
 2648 01b7 00       		.byte	0
 2649 01b8 FF       		.byte	-1
 2650 01b9 00       		.byte	0
ARM GAS  C:\Users\hungv\AppData\Local\Temp\cckPIcAY.s 			page 74


 2651 01ba E0       		.byte	-32
 2652 01bb 04       		.byte	4
 2653 01bc C0       		.byte	-64
 2654 01bd C8       		.byte	-56
 2655 01be C1       		.byte	-63
 2656 01bf 96       		.byte	-106
 2657 01c0 86       		.byte	-122
 2658 01c1 3D       		.byte	61
 2659 01c2 50       		.byte	80
 2660 01c3 89       		.byte	-119
 2661 01c4 51       		.byte	81
 2662 01c5 90       		.byte	-112
 2663 01c6 52       		.byte	82
 2664 01c7 2C       		.byte	44
 2665 01c8 53       		.byte	83
 2666 01c9 00       		.byte	0
 2667 01ca 54       		.byte	84
 2668 01cb 00       		.byte	0
 2669 01cc 55       		.byte	85
 2670 01cd 88       		.byte	-120
 2671 01ce 57       		.byte	87
 2672 01cf 00       		.byte	0
 2673 01d0 5A       		.byte	90
 2674 01d1 A0       		.byte	-96
 2675 01d2 5B       		.byte	91
 2676 01d3 78       		.byte	120
 2677 01d4 5C       		.byte	92
 2678 01d5 00       		.byte	0
 2679 01d6 D3       		.byte	-45
 2680 01d7 02       		.byte	2
 2681 01d8 E0       		.byte	-32
 2682 01d9 00       		.byte	0
 2683              		.text
 2684              	.Letext0:
 2685              		.file 2 "c:\\users\\hungv\\appdata\\roaming\\xpacks\\@gnu-mcu-eclipse\\arm-none-eabi-gcc\\8.2.1-1.
 2686              		.file 3 "c:\\users\\hungv\\appdata\\roaming\\xpacks\\@gnu-mcu-eclipse\\arm-none-eabi-gcc\\8.2.1-1.
 2687              		.file 4 "Drivers/CMSIS/Include/core_cm4.h"
 2688              		.file 5 "Drivers/CMSIS/Device/ST/STM32F4xx/Include/system_stm32f4xx.h"
 2689              		.file 6 "Inc/camera.h"
 2690              		.file 7 "Inc/ov2640.h"
 2691              		.file 8 "Drivers/STM32F4xx_HAL_Driver/Inc/stm32f4xx_hal.h"
ARM GAS  C:\Users\hungv\AppData\Local\Temp\cckPIcAY.s 			page 75

